(dp0
S'cute'
p1
ccopy_reg
_reconstructor
p2
(cscipy.sparse.lil
lil_matrix
p3
c__builtin__
object
p4
Ntp5
Rp6
(dp7
S'rows'
p8
cnumpy.core.multiarray
_reconstruct
p9
(cnumpy
ndarray
p10
(I0
tp11
S'b'
p12
tp13
Rp14
(I1
(I1
tp15
cnumpy
dtype
p16
(S'O8'
p17
I0
I1
tp18
Rp19
(I3
S'|'
p20
NNNI-1
I-1
I63
tp21
bI00
(lp22
(lp23
I244
aatp24
bsS'format'
p25
S'lil'
p26
sS'dtype'
p27
g16
(S'i8'
p28
I0
I1
tp29
Rp30
(I3
S'<'
p31
NNNI-1
I-1
I0
tp32
bsS'_shape'
p33
(I1
I1100
tp34
sS'maxprint'
p35
I50
sS'data'
p36
g9
(g10
(I0
tp37
g12
tp38
Rp39
(I1
(I1
tp40
g19
I00
(lp41
(lp42
cnumpy.core.multiarray
scalar
p43
(g30
S'\x01\x00\x00\x00\x00\x00\x00\x00'
p44
tp45
Rp46
aatp47
bsbsS'all'
p48
g2
(g3
g4
Ntp49
Rp50
(dp51
g8
g9
(g10
(I0
tp52
g12
tp53
Rp54
(I1
(I1
tp55
g19
I00
(lp56
(lp57
I47
aatp58
bsg25
S'lil'
p59
sg27
g30
sg33
(I1
I1100
tp60
sg35
I50
sg36
g9
(g10
(I0
tp61
g12
tp62
Rp63
(I1
(I1
tp64
g19
I00
(lp65
(lp66
g43
(g30
S'\x01\x00\x00\x00\x00\x00\x00\x00'
p67
tp68
Rp69
aatp70
bsbsS'excessive'
p71
g2
(g3
g4
Ntp72
Rp73
(dp74
g8
g9
(g10
(I0
tp75
g12
tp76
Rp77
(I1
(I1
tp78
g19
I00
(lp79
(lp80
I362
aatp81
bsg25
S'lil'
p82
sg27
g30
sg33
(I1
I1100
tp83
sg35
I50
sg36
g9
(g10
(I0
tp84
g12
tp85
Rp86
(I1
(I1
tp87
g19
I00
(lp88
(lp89
g43
(g30
S'\x01\x00\x00\x00\x00\x00\x00\x00'
p90
tp91
Rp92
aatp93
bsbsS'dawning'
p94
g2
(g3
g4
Ntp95
Rp96
(dp97
g8
g9
(g10
(I0
tp98
g12
tp99
Rp100
(I1
(I1
tp101
g19
I00
(lp102
(lp103
I246
aatp104
bsg25
S'lil'
p105
sg27
g30
sg33
(I1
I1100
tp106
sg35
I50
sg36
g9
(g10
(I0
tp107
g12
tp108
Rp109
(I1
(I1
tp110
g19
I00
(lp111
(lp112
g43
(g30
S'\x01\x00\x00\x00\x00\x00\x00\x00'
p113
tp114
Rp115
aatp116
bsbsS'embolism'
p117
g2
(g3
g4
Ntp118
Rp119
(dp120
g8
g9
(g10
(I0
tp121
g12
tp122
Rp123
(I1
(I1
tp124
g19
I00
(lp125
(lp126
I322
aatp127
bsg25
S'lil'
p128
sg27
g30
sg33
(I1
I1100
tp129
sg35
I50
sg36
g9
(g10
(I0
tp130
g12
tp131
Rp132
(I1
(I1
tp133
g19
I00
(lp134
(lp135
g43
(g30
S'\x01\x00\x00\x00\x00\x00\x00\x00'
p136
tp137
Rp138
aatp139
bsbsS'glut'
p140
g2
(g3
g4
Ntp141
Rp142
(dp143
g8
g9
(g10
(I0
tp144
g12
tp145
Rp146
(I1
(I1
tp147
g19
I00
(lp148
(lp149
I437
aatp150
bsg25
S'lil'
p151
sg27
g30
sg33
(I1
I1100
tp152
sg35
I50
sg36
g9
(g10
(I0
tp153
g12
tp154
Rp155
(I1
(I1
tp156
g19
I00
(lp157
(lp158
g43
(g30
S'\x01\x00\x00\x00\x00\x00\x00\x00'
p159
tp160
Rp161
aatp162
bsbsS'atmosphere'
p163
g2
(g3
g4
Ntp164
Rp165
(dp166
g8
g9
(g10
(I0
tp167
g12
tp168
Rp169
(I1
(I1
tp170
g19
I00
(lp171
(lp172
I97
aatp173
bsg25
S'lil'
p174
sg27
g30
sg33
(I1
I1100
tp175
sg35
I50
sg36
g9
(g10
(I0
tp176
g12
tp177
Rp178
(I1
(I1
tp179
g19
I00
(lp180
(lp181
g43
(g30
S'\x01\x00\x00\x00\x00\x00\x00\x00'
p182
tp183
Rp184
aatp185
bsbsS'doubtful'
p186
g2
(g3
g4
Ntp187
Rp188
(dp189
g8
g9
(g10
(I0
tp190
g12
tp191
Rp192
(I1
(I1
tp193
g19
I00
(lp194
(lp195
I297
aatp196
bsg25
S'lil'
p197
sg27
g30
sg33
(I1
I1100
tp198
sg35
I50
sg36
g9
(g10
(I0
tp199
g12
tp200
Rp201
(I1
(I1
tp202
g19
I00
(lp203
(lp204
g43
(g30
S'\x01\x00\x00\x00\x00\x00\x00\x00'
p205
tp206
Rp207
aatp208
bsbsS'thoughtful'
p209
g2
(g3
g4
Ntp210
Rp211
(dp212
g8
g9
(g10
(I0
tp213
g12
tp214
Rp215
(I1
(I1
tp216
g19
I00
(lp217
(lp218
I961
aatp219
bsg25
S'lil'
p220
sg27
g30
sg33
(I1
I1100
tp221
sg35
I50
sg36
g9
(g10
(I0
tp222
g12
tp223
Rp224
(I1
(I1
tp225
g19
I00
(lp226
(lp227
g43
(g30
S'\x01\x00\x00\x00\x00\x00\x00\x00'
p228
tp229
Rp230
aatp231
bsbsS'supplement'
p232
g2
(g3
g4
Ntp233
Rp234
(dp235
g8
g9
(g10
(I0
tp236
g12
tp237
Rp238
(I1
(I1
tp239
g19
I00
(lp240
(lp241
I926
aatp242
bsg25
S'lil'
p243
sg27
g30
sg33
(I1
I1100
tp244
sg35
I50
sg36
g9
(g10
(I0
tp245
g12
tp246
Rp247
(I1
(I1
tp248
g19
I00
(lp249
(lp250
g43
(g30
S'\x01\x00\x00\x00\x00\x00\x00\x00'
p251
tp252
Rp253
aatp254
bsbsS'cocky'
p255
g2
(g3
g4
Ntp256
Rp257
(dp258
g8
g9
(g10
(I0
tp259
g12
tp260
Rp261
(I1
(I1
tp262
g19
I00
(lp263
(lp264
I183
aatp265
bsg25
S'lil'
p266
sg27
g30
sg33
(I1
I1100
tp267
sg35
I50
sg36
g9
(g10
(I0
tp268
g12
tp269
Rp270
(I1
(I1
tp271
g19
I00
(lp272
(lp273
g43
(g30
S'\x01\x00\x00\x00\x00\x00\x00\x00'
p274
tp275
Rp276
aatp277
bsbsS'renege'
p278
g2
(g3
g4
Ntp279
Rp280
(dp281
g8
g9
(g10
(I0
tp282
g12
tp283
Rp284
(I1
(I1
tp285
g19
I00
(lp286
(lp287
I785
aatp288
bsg25
S'lil'
p289
sg27
g30
sg33
(I1
I1100
tp290
sg35
I50
sg36
g9
(g10
(I0
tp291
g12
tp292
Rp293
(I1
(I1
tp294
g19
I00
(lp295
(lp296
g43
(g30
S'\x01\x00\x00\x00\x00\x00\x00\x00'
p297
tp298
Rp299
aatp300
bsbsS'cruise'
p301
g2
(g3
g4
Ntp302
Rp303
(dp304
g8
g9
(g10
(I0
tp305
g12
tp306
Rp307
(I1
(I1
tp308
g19
I00
(lp309
(lp310
I240
aatp311
bsg25
S'lil'
p312
sg27
g30
sg33
(I1
I1100
tp313
sg35
I50
sg36
g9
(g10
(I0
tp314
g12
tp315
Rp316
(I1
(I1
tp317
g19
I00
(lp318
(lp319
g43
(g30
S'\x01\x00\x00\x00\x00\x00\x00\x00'
p320
tp321
Rp322
aatp323
bsbsS'melody'
p324
g2
(g3
g4
Ntp325
Rp326
(dp327
g8
g9
(g10
(I0
tp328
g12
tp329
Rp330
(I1
(I1
tp331
g19
I00
(lp332
(lp333
I598
aatp334
bsg25
S'lil'
p335
sg27
g30
sg33
(I1
I1100
tp336
sg35
I50
sg36
g9
(g10
(I0
tp337
g12
tp338
Rp339
(I1
(I1
tp340
g19
I00
(lp341
(lp342
g43
(g30
S'\x01\x00\x00\x00\x00\x00\x00\x00'
p343
tp344
Rp345
aatp346
bsbsS'bestowing'
p347
g2
(g3
g4
Ntp348
Rp349
(dp350
g8
g9
(g10
(I0
tp351
g12
tp352
Rp353
(I1
(I1
tp354
g19
I00
(lp355
(lp356
I126
aatp357
bsg25
S'lil'
p358
sg27
g30
sg33
(I1
I1100
tp359
sg35
I50
sg36
g9
(g10
(I0
tp360
g12
tp361
Rp362
(I1
(I1
tp363
g19
I00
(lp364
(lp365
g43
(g30
S'\x01\x00\x00\x00\x00\x00\x00\x00'
p366
tp367
Rp368
aatp369
bsbsS'decade'
p370
g2
(g3
g4
Ntp371
Rp372
(dp373
g8
g9
(g10
(I0
tp374
g12
tp375
Rp376
(I1
(I1
tp377
g19
I00
(lp378
(lp379
I251
aatp380
bsg25
S'lil'
p381
sg27
g30
sg33
(I1
I1100
tp382
sg35
I50
sg36
g9
(g10
(I0
tp383
g12
tp384
Rp385
(I1
(I1
tp386
g19
I00
(lp387
(lp388
g43
(g30
S'\x01\x00\x00\x00\x00\x00\x00\x00'
p389
tp390
Rp391
aatp392
bsbsS'geography'
p393
g2
(g3
g4
Ntp394
Rp395
(dp396
g8
g9
(g10
(I0
tp397
g12
tp398
Rp399
(I1
(I1
tp400
g19
I00
(lp401
(lp402
I431
aatp403
bsg25
S'lil'
p404
sg27
g30
sg33
(I1
I1100
tp405
sg35
I50
sg36
g9
(g10
(I0
tp406
g12
tp407
Rp408
(I1
(I1
tp409
g19
I00
(lp410
(lp411
g43
(g30
S'\x01\x00\x00\x00\x00\x00\x00\x00'
p412
tp413
Rp414
aatp415
bsbsS'illegible'
p416
g2
(g3
g4
Ntp417
Rp418
(dp419
g8
g9
(g10
(I0
tp420
g12
tp421
Rp422
(I1
(I1
tp423
g19
I00
(lp424
(lp425
I488
aatp426
bsg25
S'lil'
p427
sg27
g30
sg33
(I1
I1100
tp428
sg35
I50
sg36
g9
(g10
(I0
tp429
g12
tp430
Rp431
(I1
(I1
tp432
g19
I00
(lp433
(lp434
g43
(g30
S'\x01\x00\x00\x00\x00\x00\x00\x00'
p435
tp436
Rp437
aatp438
bsbsS'superior'
p439
g2
(g3
g4
Ntp440
Rp441
(dp442
g8
g9
(g10
(I0
tp443
g12
tp444
Rp445
(I1
(I1
tp446
g19
I00
(lp447
(lp448
I925
aatp449
bsg25
S'lil'
p450
sg27
g30
sg33
(I1
I1100
tp451
sg35
I50
sg36
g9
(g10
(I0
tp452
g12
tp453
Rp454
(I1
(I1
tp455
g19
I00
(lp456
(lp457
g43
(g30
S'\x01\x00\x00\x00\x00\x00\x00\x00'
p458
tp459
Rp460
aatp461
bsbsS'nemesis'
p462
g2
(g3
g4
Ntp463
Rp464
(dp465
g8
g9
(g10
(I0
tp466
g12
tp467
Rp468
(I1
(I1
tp469
g19
I00
(lp470
(lp471
I625
aatp472
bsg25
S'lil'
p473
sg27
g30
sg33
(I1
I1100
tp474
sg35
I50
sg36
g9
(g10
(I0
tp475
g12
tp476
Rp477
(I1
(I1
tp478
g19
I00
(lp479
(lp480
g43
(g30
S'\x01\x00\x00\x00\x00\x00\x00\x00'
p481
tp482
Rp483
aatp484
bsbsS'duplex'
p485
g2
(g3
g4
Ntp486
Rp487
(dp488
g8
g9
(g10
(I0
tp489
g12
tp490
Rp491
(I1
(I1
tp492
g19
I00
(lp493
(lp494
I303
aatp495
bsg25
S'lil'
p496
sg27
g30
sg33
(I1
I1100
tp497
sg35
I50
sg36
g9
(g10
(I0
tp498
g12
tp499
Rp500
(I1
(I1
tp501
g19
I00
(lp502
(lp503
g43
(g30
S'\x01\x00\x00\x00\x00\x00\x00\x00'
p504
tp505
Rp506
aatp507
bsbsS'pompous'
p508
g2
(g3
g4
Ntp509
Rp510
(dp511
g8
g9
(g10
(I0
tp512
g12
tp513
Rp514
(I1
(I1
tp515
g19
I00
(lp516
(lp517
I701
aatp518
bsg25
S'lil'
p519
sg27
g30
sg33
(I1
I1100
tp520
sg35
I50
sg36
g9
(g10
(I0
tp521
g12
tp522
Rp523
(I1
(I1
tp524
g19
I00
(lp525
(lp526
g43
(g30
S'\x01\x00\x00\x00\x00\x00\x00\x00'
p527
tp528
Rp529
aatp530
bsbsS'dispose'
p531
g2
(g3
g4
Ntp532
Rp533
(dp534
g8
g9
(g10
(I0
tp535
g12
tp536
Rp537
(I1
(I1
tp538
g19
I00
(lp539
(lp540
I282
aatp541
bsg25
S'lil'
p542
sg27
g30
sg33
(I1
I1100
tp543
sg35
I50
sg36
g9
(g10
(I0
tp544
g12
tp545
Rp546
(I1
(I1
tp547
g19
I00
(lp548
(lp549
g43
(g30
S'\x01\x00\x00\x00\x00\x00\x00\x00'
p550
tp551
Rp552
aatp553
bsbsS'unhappy'
p554
g2
(g3
g4
Ntp555
Rp556
(dp557
g8
g9
(g10
(I0
tp558
g12
tp559
Rp560
(I1
(I1
tp561
g19
I00
(lp562
(lp563
I1009
aatp564
bsg25
S'lil'
p565
sg27
g30
sg33
(I1
I1100
tp566
sg35
I50
sg36
g9
(g10
(I0
tp567
g12
tp568
Rp569
(I1
(I1
tp570
g19
I00
(lp571
(lp572
g43
(g30
S'\x01\x00\x00\x00\x00\x00\x00\x00'
p573
tp574
Rp575
aatp576
bsbsS'famished'
p577
g2
(g3
g4
Ntp578
Rp579
(dp580
g8
g9
(g10
(I0
tp581
g12
tp582
Rp583
(I1
(I1
tp584
g19
I00
(lp585
(lp586
I388
aatp587
bsg25
S'lil'
p588
sg27
g30
sg33
(I1
I1100
tp589
sg35
I50
sg36
g9
(g10
(I0
tp590
g12
tp591
Rp592
(I1
(I1
tp593
g19
I00
(lp594
(lp595
g43
(g30
S'\x01\x00\x00\x00\x00\x00\x00\x00'
p596
tp597
Rp598
aatp599
bsbsS'compensate'
p600
g2
(g3
g4
Ntp601
Rp602
(dp603
g8
g9
(g10
(I0
tp604
g12
tp605
Rp606
(I1
(I1
tp607
g19
I00
(lp608
(lp609
I196
aatp610
bsg25
S'lil'
p611
sg27
g30
sg33
(I1
I1100
tp612
sg35
I50
sg36
g9
(g10
(I0
tp613
g12
tp614
Rp615
(I1
(I1
tp616
g19
I00
(lp617
(lp618
g43
(g30
S'\x01\x00\x00\x00\x00\x00\x00\x00'
p619
tp620
Rp621
aatp622
bsbsS'ambivalent'
p623
g2
(g3
g4
Ntp624
Rp625
(dp626
g8
g9
(g10
(I0
tp627
g12
tp628
Rp629
(I1
(I1
tp630
g19
I00
(lp631
(lp632
I49
aatp633
bsg25
S'lil'
p634
sg27
g30
sg33
(I1
I1100
tp635
sg35
I50
sg36
g9
(g10
(I0
tp636
g12
tp637
Rp638
(I1
(I1
tp639
g19
I00
(lp640
(lp641
g43
(g30
S'\x01\x00\x00\x00\x00\x00\x00\x00'
p642
tp643
Rp644
aatp645
bsbsS'joyful'
p646
g2
(g3
g4
Ntp647
Rp648
(dp649
g8
g9
(g10
(I0
tp650
g12
tp651
Rp652
(I1
(I1
tp653
g19
I00
(lp654
(lp655
I542
aatp656
bsg25
S'lil'
p657
sg27
g30
sg33
(I1
I1100
tp658
sg35
I50
sg36
g9
(g10
(I0
tp659
g12
tp660
Rp661
(I1
(I1
tp662
g19
I00
(lp663
(lp664
g43
(g30
S'\x01\x00\x00\x00\x00\x00\x00\x00'
p665
tp666
Rp667
aatp668
bsbsS'smart'
p669
g2
(g3
g4
Ntp670
Rp671
(dp672
g8
g9
(g10
(I0
tp673
g12
tp674
Rp675
(I1
(I1
tp676
g19
I00
(lp677
(lp678
I862
aatp679
bsg25
S'lil'
p680
sg27
g30
sg33
(I1
I1100
tp681
sg35
I50
sg36
g9
(g10
(I0
tp682
g12
tp683
Rp684
(I1
(I1
tp685
g19
I00
(lp686
(lp687
g43
(g30
S'\x01\x00\x00\x00\x00\x00\x00\x00'
p688
tp689
Rp690
aatp691
bsbsS'eliminate'
p692
g2
(g3
g4
Ntp693
Rp694
(dp695
g8
g9
(g10
(I0
tp696
g12
tp697
Rp698
(I1
(I1
tp699
g19
I00
(lp700
(lp701
I317
aatp702
bsg25
S'lil'
p703
sg27
g30
sg33
(I1
I1100
tp704
sg35
I50
sg36
g9
(g10
(I0
tp705
g12
tp706
Rp707
(I1
(I1
tp708
g19
I00
(lp709
(lp710
g43
(g30
S'\x01\x00\x00\x00\x00\x00\x00\x00'
p711
tp712
Rp713
aatp714
bsbsS'identical'
p715
g2
(g3
g4
Ntp716
Rp717
(dp718
g8
g9
(g10
(I0
tp719
g12
tp720
Rp721
(I1
(I1
tp722
g19
I00
(lp723
(lp724
I485
aatp725
bsg25
S'lil'
p726
sg27
g30
sg33
(I1
I1100
tp727
sg35
I50
sg36
g9
(g10
(I0
tp728
g12
tp729
Rp730
(I1
(I1
tp731
g19
I00
(lp732
(lp733
g43
(g30
S'\x01\x00\x00\x00\x00\x00\x00\x00'
p734
tp735
Rp736
aatp737
bsbsS'glorify'
p738
g2
(g3
g4
Ntp739
Rp740
(dp741
g8
g9
(g10
(I0
tp742
g12
tp743
Rp744
(I1
(I1
tp745
g19
I00
(lp746
(lp747
I436
aatp748
bsg25
S'lil'
p749
sg27
g30
sg33
(I1
I1100
tp750
sg35
I50
sg36
g9
(g10
(I0
tp751
g12
tp752
Rp753
(I1
(I1
tp754
g19
I00
(lp755
(lp756
g43
(g30
S'\x01\x00\x00\x00\x00\x00\x00\x00'
p757
tp758
Rp759
aatp760
bsbsS'motivated'
p761
g2
(g3
g4
Ntp762
Rp763
(dp764
g8
g9
(g10
(I0
tp765
g12
tp766
Rp767
(I1
(I1
tp768
g19
I00
(lp769
(lp770
I615
aatp771
bsg25
S'lil'
p772
sg27
g30
sg33
(I1
I1100
tp773
sg35
I50
sg36
g9
(g10
(I0
tp774
g12
tp775
Rp776
(I1
(I1
tp777
g19
I00
(lp778
(lp779
g43
(g30
S'\x01\x00\x00\x00\x00\x00\x00\x00'
p780
tp781
Rp782
aatp783
bsbsS'dissimilar'
p784
g2
(g3
g4
Ntp785
Rp786
(dp787
g8
g9
(g10
(I0
tp788
g12
tp789
Rp790
(I1
(I1
tp791
g19
I00
(lp792
(lp793
I285
aatp794
bsg25
S'lil'
p795
sg27
g30
sg33
(I1
I1100
tp796
sg35
I50
sg36
g9
(g10
(I0
tp797
g12
tp798
Rp799
(I1
(I1
tp800
g19
I00
(lp801
(lp802
g43
(g30
S'\x01\x00\x00\x00\x00\x00\x00\x00'
p803
tp804
Rp805
aatp806
bsbsS'fate'
p807
g2
(g3
g4
Ntp808
Rp809
(dp810
g8
g9
(g10
(I0
tp811
g12
tp812
Rp813
(I1
(I1
tp814
g19
I00
(lp815
(lp816
I394
aatp817
bsg25
S'lil'
p818
sg27
g30
sg33
(I1
I1100
tp819
sg35
I50
sg36
g9
(g10
(I0
tp820
g12
tp821
Rp822
(I1
(I1
tp823
g19
I00
(lp824
(lp825
g43
(g30
S'\x01\x00\x00\x00\x00\x00\x00\x00'
p826
tp827
Rp828
aatp829
bsbsS'exceptional'
p830
g2
(g3
g4
Ntp831
Rp832
(dp833
g8
g9
(g10
(I0
tp834
g12
tp835
Rp836
(I1
(I1
tp837
g19
I00
(lp838
(lp839
I360
aatp840
bsg25
S'lil'
p841
sg27
g30
sg33
(I1
I1100
tp842
sg35
I50
sg36
g9
(g10
(I0
tp843
g12
tp844
Rp845
(I1
(I1
tp846
g19
I00
(lp847
(lp848
g43
(g30
S'\x01\x00\x00\x00\x00\x00\x00\x00'
p849
tp850
Rp851
aatp852
bsbsS'fantabulous'
p853
g2
(g3
g4
Ntp854
Rp855
(dp856
g8
g9
(g10
(I0
tp857
g12
tp858
Rp859
(I1
(I1
tp860
g19
I00
(lp861
(lp862
I389
aatp863
bsg25
S'lil'
p864
sg27
g30
sg33
(I1
I1100
tp865
sg35
I50
sg36
g9
(g10
(I0
tp866
g12
tp867
Rp868
(I1
(I1
tp869
g19
I00
(lp870
(lp871
g43
(g30
S'\x01\x00\x00\x00\x00\x00\x00\x00'
p872
tp873
Rp874
aatp875
bsbsS'punctual'
p876
g2
(g3
g4
Ntp877
Rp878
(dp879
g8
g9
(g10
(I0
tp880
g12
tp881
Rp882
(I1
(I1
tp883
g19
I00
(lp884
(lp885
I741
aatp886
bsg25
S'lil'
p887
sg27
g30
sg33
(I1
I1100
tp888
sg35
I50
sg36
g9
(g10
(I0
tp889
g12
tp890
Rp891
(I1
(I1
tp892
g19
I00
(lp893
(lp894
g43
(g30
S'\x01\x00\x00\x00\x00\x00\x00\x00'
p895
tp896
Rp897
aatp898
bsbsS'assuming'
p899
g2
(g3
g4
Ntp900
Rp901
(dp902
g8
g9
(g10
(I0
tp903
g12
tp904
Rp905
(I1
(I1
tp906
g19
I00
(lp907
(lp908
I94
aatp909
bsg25
S'lil'
p910
sg27
g30
sg33
(I1
I1100
tp911
sg35
I50
sg36
g9
(g10
(I0
tp912
g12
tp913
Rp914
(I1
(I1
tp915
g19
I00
(lp916
(lp917
g43
(g30
S'\x01\x00\x00\x00\x00\x00\x00\x00'
p918
tp919
Rp920
aatp921
bsbsS'enthusiastic'
p922
g2
(g3
g4
Ntp923
Rp924
(dp925
g8
g9
(g10
(I0
tp926
g12
tp927
Rp928
(I1
(I1
tp929
g19
I00
(lp930
(lp931
I337
aatp932
bsg25
S'lil'
p933
sg27
g30
sg33
(I1
I1100
tp934
sg35
I50
sg36
g9
(g10
(I0
tp935
g12
tp936
Rp937
(I1
(I1
tp938
g19
I00
(lp939
(lp940
g43
(g30
S'\x01\x00\x00\x00\x00\x00\x00\x00'
p941
tp942
Rp943
aatp944
bsbsS'unfamiliar'
p945
g2
(g3
g4
Ntp946
Rp947
(dp948
g8
g9
(g10
(I0
tp949
g12
tp950
Rp951
(I1
(I1
tp952
g19
I00
(lp953
(lp954
I1006
aatp955
bsg25
S'lil'
p956
sg27
g30
sg33
(I1
I1100
tp957
sg35
I50
sg36
g9
(g10
(I0
tp958
g12
tp959
Rp960
(I1
(I1
tp961
g19
I00
(lp962
(lp963
g43
(g30
S'\x01\x00\x00\x00\x00\x00\x00\x00'
p964
tp965
Rp966
aatp967
bsbsS'harmonic'
p968
g2
(g3
g4
Ntp969
Rp970
(dp971
g8
g9
(g10
(I0
tp972
g12
tp973
Rp974
(I1
(I1
tp975
g19
I00
(lp976
(lp977
I459
aatp978
bsg25
S'lil'
p979
sg27
g30
sg33
(I1
I1100
tp980
sg35
I50
sg36
g9
(g10
(I0
tp981
g12
tp982
Rp983
(I1
(I1
tp984
g19
I00
(lp985
(lp986
g43
(g30
S'\x01\x00\x00\x00\x00\x00\x00\x00'
p987
tp988
Rp989
aatp990
bsbsS'tenacious'
p991
g2
(g3
g4
Ntp992
Rp993
(dp994
g8
g9
(g10
(I0
tp995
g12
tp996
Rp997
(I1
(I1
tp998
g19
I00
(lp999
(lp1000
I941
aatp1001
bsg25
S'lil'
p1002
sg27
g30
sg33
(I1
I1100
tp1003
sg35
I50
sg36
g9
(g10
(I0
tp1004
g12
tp1005
Rp1006
(I1
(I1
tp1007
g19
I00
(lp1008
(lp1009
g43
(g30
S'\x01\x00\x00\x00\x00\x00\x00\x00'
p1010
tp1011
Rp1012
aatp1013
bsbsS'assistive'
p1014
g2
(g3
g4
Ntp1015
Rp1016
(dp1017
g8
g9
(g10
(I0
tp1018
g12
tp1019
Rp1020
(I1
(I1
tp1021
g19
I00
(lp1022
(lp1023
I91
aatp1024
bsg25
S'lil'
p1025
sg27
g30
sg33
(I1
I1100
tp1026
sg35
I50
sg36
g9
(g10
(I0
tp1027
g12
tp1028
Rp1029
(I1
(I1
tp1030
g19
I00
(lp1031
(lp1032
g43
(g30
S'\x01\x00\x00\x00\x00\x00\x00\x00'
p1033
tp1034
Rp1035
aatp1036
bsbsS'consecutive'
p1037
g2
(g3
g4
Ntp1038
Rp1039
(dp1040
g8
g9
(g10
(I0
tp1041
g12
tp1042
Rp1043
(I1
(I1
tp1044
g19
I00
(lp1045
(lp1046
I212
aatp1047
bsg25
S'lil'
p1048
sg27
g30
sg33
(I1
I1100
tp1049
sg35
I50
sg36
g9
(g10
(I0
tp1050
g12
tp1051
Rp1052
(I1
(I1
tp1053
g19
I00
(lp1054
(lp1055
g43
(g30
S'\x01\x00\x00\x00\x00\x00\x00\x00'
p1056
tp1057
Rp1058
aatp1059
bsbsS'awful'
p1060
g2
(g3
g4
Ntp1061
Rp1062
(dp1063
g8
g9
(g10
(I0
tp1064
g12
tp1065
Rp1066
(I1
(I1
tp1067
g19
I00
(lp1068
(lp1069
I110
aatp1070
bsg25
S'lil'
p1071
sg27
g30
sg33
(I1
I1100
tp1072
sg35
I50
sg36
g9
(g10
(I0
tp1073
g12
tp1074
Rp1075
(I1
(I1
tp1076
g19
I00
(lp1077
(lp1078
g43
(g30
S'\x01\x00\x00\x00\x00\x00\x00\x00'
p1079
tp1080
Rp1081
aatp1082
bsbsS'bit'
p1083
g2
(g3
g4
Ntp1084
Rp1085
(dp1086
g8
g9
(g10
(I0
tp1087
g12
tp1088
Rp1089
(I1
(I1
tp1090
g19
I00
(lp1091
(lp1092
I131
aatp1093
bsg25
S'lil'
p1094
sg27
g30
sg33
(I1
I1100
tp1095
sg35
I50
sg36
g9
(g10
(I0
tp1096
g12
tp1097
Rp1098
(I1
(I1
tp1099
g19
I00
(lp1100
(lp1101
g43
(g30
S'\x01\x00\x00\x00\x00\x00\x00\x00'
p1102
tp1103
Rp1104
aatp1105
bsbsS'unique'
p1106
g2
(g3
g4
Ntp1107
Rp1108
(dp1109
g8
g9
(g10
(I0
tp1110
g12
tp1111
Rp1112
(I1
(I1
tp1113
g19
I00
(lp1114
(lp1115
I1012
aatp1116
bsg25
S'lil'
p1117
sg27
g30
sg33
(I1
I1100
tp1118
sg35
I50
sg36
g9
(g10
(I0
tp1119
g12
tp1120
Rp1121
(I1
(I1
tp1122
g19
I00
(lp1123
(lp1124
g43
(g30
S'\x01\x00\x00\x00\x00\x00\x00\x00'
p1125
tp1126
Rp1127
aatp1128
bsbsS'flee'
p1129
g2
(g3
g4
Ntp1130
Rp1131
(dp1132
g8
g9
(g10
(I0
tp1133
g12
tp1134
Rp1135
(I1
(I1
tp1136
g19
I00
(lp1137
(lp1138
I407
aatp1139
bsg25
S'lil'
p1140
sg27
g30
sg33
(I1
I1100
tp1141
sg35
I50
sg36
g9
(g10
(I0
tp1142
g12
tp1143
Rp1144
(I1
(I1
tp1145
g19
I00
(lp1146
(lp1147
g43
(g30
S'\x01\x00\x00\x00\x00\x00\x00\x00'
p1148
tp1149
Rp1150
aatp1151
bsbsS'realize'
p1152
g2
(g3
g4
Ntp1153
Rp1154
(dp1155
g8
g9
(g10
(I0
tp1156
g12
tp1157
Rp1158
(I1
(I1
tp1159
g19
I00
(lp1160
(lp1161
I767
aatp1162
bsg25
S'lil'
p1163
sg27
g30
sg33
(I1
I1100
tp1164
sg35
I50
sg36
g9
(g10
(I0
tp1165
g12
tp1166
Rp1167
(I1
(I1
tp1168
g19
I00
(lp1169
(lp1170
g43
(g30
S'\x01\x00\x00\x00\x00\x00\x00\x00'
p1171
tp1172
Rp1173
aatp1174
bsbsS'stroll'
p1175
g2
(g3
g4
Ntp1176
Rp1177
(dp1178
g8
g9
(g10
(I0
tp1179
g12
tp1180
Rp1181
(I1
(I1
tp1182
g19
I00
(lp1183
(lp1184
I906
aatp1185
bsg25
S'lil'
p1186
sg27
g30
sg33
(I1
I1100
tp1187
sg35
I50
sg36
g9
(g10
(I0
tp1188
g12
tp1189
Rp1190
(I1
(I1
tp1191
g19
I00
(lp1192
(lp1193
g43
(g30
S'\x01\x00\x00\x00\x00\x00\x00\x00'
p1194
tp1195
Rp1196
aatp1197
bsbsS'posture'
p1198
g2
(g3
g4
Ntp1199
Rp1200
(dp1201
g8
g9
(g10
(I0
tp1202
g12
tp1203
Rp1204
(I1
(I1
tp1205
g19
I00
(lp1206
(lp1207
I712
aatp1208
bsg25
S'lil'
p1209
sg27
g30
sg33
(I1
I1100
tp1210
sg35
I50
sg36
g9
(g10
(I0
tp1211
g12
tp1212
Rp1213
(I1
(I1
tp1214
g19
I00
(lp1215
(lp1216
g43
(g30
S'\x01\x00\x00\x00\x00\x00\x00\x00'
p1217
tp1218
Rp1219
aatp1220
bsbsS'rebirth'
p1221
g2
(g3
g4
Ntp1222
Rp1223
(dp1224
g8
g9
(g10
(I0
tp1225
g12
tp1226
Rp1227
(I1
(I1
tp1228
g19
I00
(lp1229
(lp1230
I771
aatp1231
bsg25
S'lil'
p1232
sg27
g30
sg33
(I1
I1100
tp1233
sg35
I50
sg36
g9
(g10
(I0
tp1234
g12
tp1235
Rp1236
(I1
(I1
tp1237
g19
I00
(lp1238
(lp1239
g43
(g30
S'\x01\x00\x00\x00\x00\x00\x00\x00'
p1240
tp1241
Rp1242
aatp1243
bsbsS'rotate'
p1244
g2
(g3
g4
Ntp1245
Rp1246
(dp1247
g8
g9
(g10
(I0
tp1248
g12
tp1249
Rp1250
(I1
(I1
tp1251
g19
I00
(lp1252
(lp1253
I811
aatp1254
bsg25
S'lil'
p1255
sg27
g30
sg33
(I1
I1100
tp1256
sg35
I50
sg36
g9
(g10
(I0
tp1257
g12
tp1258
Rp1259
(I1
(I1
tp1260
g19
I00
(lp1261
(lp1262
g43
(g30
S'\x01\x00\x00\x00\x00\x00\x00\x00'
p1263
tp1264
Rp1265
aatp1266
bsbsS'sublimate'
p1267
g2
(g3
g4
Ntp1268
Rp1269
(dp1270
g8
g9
(g10
(I0
tp1271
g12
tp1272
Rp1273
(I1
(I1
tp1274
g19
I00
(lp1275
(lp1276
I914
aatp1277
bsg25
S'lil'
p1278
sg27
g30
sg33
(I1
I1100
tp1279
sg35
I50
sg36
g9
(g10
(I0
tp1280
g12
tp1281
Rp1282
(I1
(I1
tp1283
g19
I00
(lp1284
(lp1285
g43
(g30
S'\x01\x00\x00\x00\x00\x00\x00\x00'
p1286
tp1287
Rp1288
aatp1289
bsbsS'ancient'
p1290
g2
(g3
g4
Ntp1291
Rp1292
(dp1293
g8
g9
(g10
(I0
tp1294
g12
tp1295
Rp1296
(I1
(I1
tp1297
g19
I00
(lp1298
(lp1299
I56
aatp1300
bsg25
S'lil'
p1301
sg27
g30
sg33
(I1
I1100
tp1302
sg35
I50
sg36
g9
(g10
(I0
tp1303
g12
tp1304
Rp1305
(I1
(I1
tp1306
g19
I00
(lp1307
(lp1308
g43
(g30
S'\x01\x00\x00\x00\x00\x00\x00\x00'
p1309
tp1310
Rp1311
aatp1312
bsbsS'accompanying'
p1313
g2
(g3
g4
Ntp1314
Rp1315
(dp1316
g8
g9
(g10
(I0
tp1317
g12
tp1318
Rp1319
(I1
(I1
tp1320
g19
I00
(lp1321
(lp1322
I10
aatp1323
bsg25
S'lil'
p1324
sg27
g30
sg33
(I1
I1100
tp1325
sg35
I50
sg36
g9
(g10
(I0
tp1326
g12
tp1327
Rp1328
(I1
(I1
tp1329
g19
I00
(lp1330
(lp1331
g43
(g30
S'\x01\x00\x00\x00\x00\x00\x00\x00'
p1332
tp1333
Rp1334
aatp1335
bsbsS'shy'
p1336
g2
(g3
g4
Ntp1337
Rp1338
(dp1339
g8
g9
(g10
(I0
tp1340
g12
tp1341
Rp1342
(I1
(I1
tp1343
g19
I00
(lp1344
(lp1345
I847
aatp1346
bsg25
S'lil'
p1347
sg27
g30
sg33
(I1
I1100
tp1348
sg35
I50
sg36
g9
(g10
(I0
tp1349
g12
tp1350
Rp1351
(I1
(I1
tp1352
g19
I00
(lp1353
(lp1354
g43
(g30
S'\x01\x00\x00\x00\x00\x00\x00\x00'
p1355
tp1356
Rp1357
aatp1358
bsbsS'compassionate'
p1359
g2
(g3
g4
Ntp1360
Rp1361
(dp1362
g8
g9
(g10
(I0
tp1363
g12
tp1364
Rp1365
(I1
(I1
tp1366
g19
I00
(lp1367
(lp1368
I195
aatp1369
bsg25
S'lil'
p1370
sg27
g30
sg33
(I1
I1100
tp1371
sg35
I50
sg36
g9
(g10
(I0
tp1372
g12
tp1373
Rp1374
(I1
(I1
tp1375
g19
I00
(lp1376
(lp1377
g43
(g30
S'\x01\x00\x00\x00\x00\x00\x00\x00'
p1378
tp1379
Rp1380
aatp1381
bsbsS'evade'
p1382
g2
(g3
g4
Ntp1383
Rp1384
(dp1385
g8
g9
(g10
(I0
tp1386
g12
tp1387
Rp1388
(I1
(I1
tp1389
g19
I00
(lp1390
(lp1391
I353
aatp1392
bsg25
S'lil'
p1393
sg27
g30
sg33
(I1
I1100
tp1394
sg35
I50
sg36
g9
(g10
(I0
tp1395
g12
tp1396
Rp1397
(I1
(I1
tp1398
g19
I00
(lp1399
(lp1400
g43
(g30
S'\x01\x00\x00\x00\x00\x00\x00\x00'
p1401
tp1402
Rp1403
aatp1404
bsbsS'affluent'
p1405
g2
(g3
g4
Ntp1406
Rp1407
(dp1408
g8
g9
(g10
(I0
tp1409
g12
tp1410
Rp1411
(I1
(I1
tp1412
g19
I00
(lp1413
(lp1414
I35
aatp1415
bsg25
S'lil'
p1416
sg27
g30
sg33
(I1
I1100
tp1417
sg35
I50
sg36
g9
(g10
(I0
tp1418
g12
tp1419
Rp1420
(I1
(I1
tp1421
g19
I00
(lp1422
(lp1423
g43
(g30
S'\x01\x00\x00\x00\x00\x00\x00\x00'
p1424
tp1425
Rp1426
aatp1427
bsbsS'gullible'
p1428
g2
(g3
g4
Ntp1429
Rp1430
(dp1431
g8
g9
(g10
(I0
tp1432
g12
tp1433
Rp1434
(I1
(I1
tp1435
g19
I00
(lp1436
(lp1437
I454
aatp1438
bsg25
S'lil'
p1439
sg27
g30
sg33
(I1
I1100
tp1440
sg35
I50
sg36
g9
(g10
(I0
tp1441
g12
tp1442
Rp1443
(I1
(I1
tp1444
g19
I00
(lp1445
(lp1446
g43
(g30
S'\x01\x00\x00\x00\x00\x00\x00\x00'
p1447
tp1448
Rp1449
aatp1450
bsbsS'continue'
p1451
g2
(g3
g4
Ntp1452
Rp1453
(dp1454
g8
g9
(g10
(I0
tp1455
g12
tp1456
Rp1457
(I1
(I1
tp1458
g19
I00
(lp1459
(lp1460
I219
aatp1461
bsg25
S'lil'
p1462
sg27
g30
sg33
(I1
I1100
tp1463
sg35
I50
sg36
g9
(g10
(I0
tp1464
g12
tp1465
Rp1466
(I1
(I1
tp1467
g19
I00
(lp1468
(lp1469
g43
(g30
S'\x01\x00\x00\x00\x00\x00\x00\x00'
p1470
tp1471
Rp1472
aatp1473
bsbsS'caramel'
p1474
g2
(g3
g4
Ntp1475
Rp1476
(dp1477
g8
g9
(g10
(I0
tp1478
g12
tp1479
Rp1480
(I1
(I1
tp1481
g19
I00
(lp1482
(lp1483
I157
aatp1484
bsg25
S'lil'
p1485
sg27
g30
sg33
(I1
I1100
tp1486
sg35
I50
sg36
g9
(g10
(I0
tp1487
g12
tp1488
Rp1489
(I1
(I1
tp1490
g19
I00
(lp1491
(lp1492
g43
(g30
S'\x01\x00\x00\x00\x00\x00\x00\x00'
p1493
tp1494
Rp1495
aatp1496
bsbsS'contradict'
p1497
g2
(g3
g4
Ntp1498
Rp1499
(dp1500
g8
g9
(g10
(I0
tp1501
g12
tp1502
Rp1503
(I1
(I1
tp1504
g19
I00
(lp1505
(lp1506
I222
aatp1507
bsg25
S'lil'
p1508
sg27
g30
sg33
(I1
I1100
tp1509
sg35
I50
sg36
g9
(g10
(I0
tp1510
g12
tp1511
Rp1512
(I1
(I1
tp1513
g19
I00
(lp1514
(lp1515
g43
(g30
S'\x01\x00\x00\x00\x00\x00\x00\x00'
p1516
tp1517
Rp1518
aatp1519
bsbsS'courteous'
p1520
g2
(g3
g4
Ntp1521
Rp1522
(dp1523
g8
g9
(g10
(I0
tp1524
g12
tp1525
Rp1526
(I1
(I1
tp1527
g19
I00
(lp1528
(lp1529
I234
aatp1530
bsg25
S'lil'
p1531
sg27
g30
sg33
(I1
I1100
tp1532
sg35
I50
sg36
g9
(g10
(I0
tp1533
g12
tp1534
Rp1535
(I1
(I1
tp1536
g19
I00
(lp1537
(lp1538
g43
(g30
S'\x01\x00\x00\x00\x00\x00\x00\x00'
p1539
tp1540
Rp1541
aatp1542
bsbsS'revere'
p1543
g2
(g3
g4
Ntp1544
Rp1545
(dp1546
g8
g9
(g10
(I0
tp1547
g12
tp1548
Rp1549
(I1
(I1
tp1550
g19
I00
(lp1551
(lp1552
I802
aatp1553
bsg25
S'lil'
p1554
sg27
g30
sg33
(I1
I1100
tp1555
sg35
I50
sg36
g9
(g10
(I0
tp1556
g12
tp1557
Rp1558
(I1
(I1
tp1559
g19
I00
(lp1560
(lp1561
g43
(g30
S'\x01\x00\x00\x00\x00\x00\x00\x00'
p1562
tp1563
Rp1564
aatp1565
bsbsS'insane'
p1566
g2
(g3
g4
Ntp1567
Rp1568
(dp1569
g8
g9
(g10
(I0
tp1570
g12
tp1571
Rp1572
(I1
(I1
tp1573
g19
I00
(lp1574
(lp1575
I521
aatp1576
bsg25
S'lil'
p1577
sg27
g30
sg33
(I1
I1100
tp1578
sg35
I50
sg36
g9
(g10
(I0
tp1579
g12
tp1580
Rp1581
(I1
(I1
tp1582
g19
I00
(lp1583
(lp1584
g43
(g30
S'\x01\x00\x00\x00\x00\x00\x00\x00'
p1585
tp1586
Rp1587
aatp1588
bsbsS'beneficial'
p1589
g2
(g3
g4
Ntp1590
Rp1591
(dp1592
g8
g9
(g10
(I0
tp1593
g12
tp1594
Rp1595
(I1
(I1
tp1596
g19
I00
(lp1597
(lp1598
I124
aatp1599
bsg25
S'lil'
p1600
sg27
g30
sg33
(I1
I1100
tp1601
sg35
I50
sg36
g9
(g10
(I0
tp1602
g12
tp1603
Rp1604
(I1
(I1
tp1605
g19
I00
(lp1606
(lp1607
g43
(g30
S'\x01\x00\x00\x00\x00\x00\x00\x00'
p1608
tp1609
Rp1610
aatp1611
bsbsS'brave'
p1612
g2
(g3
g4
Ntp1613
Rp1614
(dp1615
g8
g9
(g10
(I0
tp1616
g12
tp1617
Rp1618
(I1
(I1
tp1619
g19
I00
(lp1620
(lp1621
I140
aatp1622
bsg25
S'lil'
p1623
sg27
g30
sg33
(I1
I1100
tp1624
sg35
I50
sg36
g9
(g10
(I0
tp1625
g12
tp1626
Rp1627
(I1
(I1
tp1628
g19
I00
(lp1629
(lp1630
g43
(g30
S'\x01\x00\x00\x00\x00\x00\x00\x00'
p1631
tp1632
Rp1633
aatp1634
bsbsS'lethargy'
p1635
g2
(g3
g4
Ntp1636
Rp1637
(dp1638
g8
g9
(g10
(I0
tp1639
g12
tp1640
Rp1641
(I1
(I1
tp1642
g19
I00
(lp1643
(lp1644
I556
aatp1645
bsg25
S'lil'
p1646
sg27
g30
sg33
(I1
I1100
tp1647
sg35
I50
sg36
g9
(g10
(I0
tp1648
g12
tp1649
Rp1650
(I1
(I1
tp1651
g19
I00
(lp1652
(lp1653
g43
(g30
S'\x01\x00\x00\x00\x00\x00\x00\x00'
p1654
tp1655
Rp1656
aatp1657
bsbsS'regret'
p1658
g2
(g3
g4
Ntp1659
Rp1660
(dp1661
g8
g9
(g10
(I0
tp1662
g12
tp1663
Rp1664
(I1
(I1
tp1665
g19
I00
(lp1666
(lp1667
I779
aatp1668
bsg25
S'lil'
p1669
sg27
g30
sg33
(I1
I1100
tp1670
sg35
I50
sg36
g9
(g10
(I0
tp1671
g12
tp1672
Rp1673
(I1
(I1
tp1674
g19
I00
(lp1675
(lp1676
g43
(g30
S'\x01\x00\x00\x00\x00\x00\x00\x00'
p1677
tp1678
Rp1679
aatp1680
bsbsS'humorous'
p1681
g2
(g3
g4
Ntp1682
Rp1683
(dp1684
g8
g9
(g10
(I0
tp1685
g12
tp1686
Rp1687
(I1
(I1
tp1688
g19
I00
(lp1689
(lp1690
I481
aatp1691
bsg25
S'lil'
p1692
sg27
g30
sg33
(I1
I1100
tp1693
sg35
I50
sg36
g9
(g10
(I0
tp1694
g12
tp1695
Rp1696
(I1
(I1
tp1697
g19
I00
(lp1698
(lp1699
g43
(g30
S'\x01\x00\x00\x00\x00\x00\x00\x00'
p1700
tp1701
Rp1702
aatp1703
bsbsS'scared'
p1704
g2
(g3
g4
Ntp1705
Rp1706
(dp1707
g8
g9
(g10
(I0
tp1708
g12
tp1709
Rp1710
(I1
(I1
tp1711
g19
I00
(lp1712
(lp1713
I821
aatp1714
bsg25
S'lil'
p1715
sg27
g30
sg33
(I1
I1100
tp1716
sg35
I50
sg36
g9
(g10
(I0
tp1717
g12
tp1718
Rp1719
(I1
(I1
tp1720
g19
I00
(lp1721
(lp1722
g43
(g30
S'\x01\x00\x00\x00\x00\x00\x00\x00'
p1723
tp1724
Rp1725
aatp1726
bsbsS'magnificent'
p1727
g2
(g3
g4
Ntp1728
Rp1729
(dp1730
g8
g9
(g10
(I0
tp1731
g12
tp1732
Rp1733
(I1
(I1
tp1734
g19
I00
(lp1735
(lp1736
I578
aatp1737
bsg25
S'lil'
p1738
sg27
g30
sg33
(I1
I1100
tp1739
sg35
I50
sg36
g9
(g10
(I0
tp1740
g12
tp1741
Rp1742
(I1
(I1
tp1743
g19
I00
(lp1744
(lp1745
g43
(g30
S'\x01\x00\x00\x00\x00\x00\x00\x00'
p1746
tp1747
Rp1748
aatp1749
bsbsS'evolving'
p1750
g2
(g3
g4
Ntp1751
Rp1752
(dp1753
g8
g9
(g10
(I0
tp1754
g12
tp1755
Rp1756
(I1
(I1
tp1757
g19
I00
(lp1758
(lp1759
I357
aatp1760
bsg25
S'lil'
p1761
sg27
g30
sg33
(I1
I1100
tp1762
sg35
I50
sg36
g9
(g10
(I0
tp1763
g12
tp1764
Rp1765
(I1
(I1
tp1766
g19
I00
(lp1767
(lp1768
g43
(g30
S'\x01\x00\x00\x00\x00\x00\x00\x00'
p1769
tp1770
Rp1771
aatp1772
bsbsS'eluding'
p1773
g2
(g3
g4
Ntp1774
Rp1775
(dp1776
g8
g9
(g10
(I0
tp1777
g12
tp1778
Rp1779
(I1
(I1
tp1780
g19
I00
(lp1781
(lp1782
I320
aatp1783
bsg25
S'lil'
p1784
sg27
g30
sg33
(I1
I1100
tp1785
sg35
I50
sg36
g9
(g10
(I0
tp1786
g12
tp1787
Rp1788
(I1
(I1
tp1789
g19
I00
(lp1790
(lp1791
g43
(g30
S'\x01\x00\x00\x00\x00\x00\x00\x00'
p1792
tp1793
Rp1794
aatp1795
bsbsS'fabulous'
p1796
g2
(g3
g4
Ntp1797
Rp1798
(dp1799
g8
g9
(g10
(I0
tp1800
g12
tp1801
Rp1802
(I1
(I1
tp1803
g19
I00
(lp1804
(lp1805
I384
aatp1806
bsg25
S'lil'
p1807
sg27
g30
sg33
(I1
I1100
tp1808
sg35
I50
sg36
g9
(g10
(I0
tp1809
g12
tp1810
Rp1811
(I1
(I1
tp1812
g19
I00
(lp1813
(lp1814
g43
(g30
S'\x01\x00\x00\x00\x00\x00\x00\x00'
p1815
tp1816
Rp1817
aatp1818
bsbsS'nonetheless'
p1819
g2
(g3
g4
Ntp1820
Rp1821
(dp1822
g8
g9
(g10
(I0
tp1823
g12
tp1824
Rp1825
(I1
(I1
tp1826
g19
I00
(lp1827
(lp1828
I630
aatp1829
bsg25
S'lil'
p1830
sg27
g30
sg33
(I1
I1100
tp1831
sg35
I50
sg36
g9
(g10
(I0
tp1832
g12
tp1833
Rp1834
(I1
(I1
tp1835
g19
I00
(lp1836
(lp1837
g43
(g30
S'\x01\x00\x00\x00\x00\x00\x00\x00'
p1838
tp1839
Rp1840
aatp1841
bsbsS'endearment'
p1842
g2
(g3
g4
Ntp1843
Rp1844
(dp1845
g8
g9
(g10
(I0
tp1846
g12
tp1847
Rp1848
(I1
(I1
tp1849
g19
I00
(lp1850
(lp1851
I328
aatp1852
bsg25
S'lil'
p1853
sg27
g30
sg33
(I1
I1100
tp1854
sg35
I50
sg36
g9
(g10
(I0
tp1855
g12
tp1856
Rp1857
(I1
(I1
tp1858
g19
I00
(lp1859
(lp1860
g43
(g30
S'\x01\x00\x00\x00\x00\x00\x00\x00'
p1861
tp1862
Rp1863
aatp1864
bsbsS'amiable'
p1865
g2
(g3
g4
Ntp1866
Rp1867
(dp1868
g8
g9
(g10
(I0
tp1869
g12
tp1870
Rp1871
(I1
(I1
tp1872
g19
I00
(lp1873
(lp1874
I52
aatp1875
bsg25
S'lil'
p1876
sg27
g30
sg33
(I1
I1100
tp1877
sg35
I50
sg36
g9
(g10
(I0
tp1878
g12
tp1879
Rp1880
(I1
(I1
tp1881
g19
I00
(lp1882
(lp1883
g43
(g30
S'\x01\x00\x00\x00\x00\x00\x00\x00'
p1884
tp1885
Rp1886
aatp1887
bsbsS'queuing'
p1888
g2
(g3
g4
Ntp1889
Rp1890
(dp1891
g8
g9
(g10
(I0
tp1892
g12
tp1893
Rp1894
(I1
(I1
tp1895
g19
I00
(lp1896
(lp1897
I751
aatp1898
bsg25
S'lil'
p1899
sg27
g30
sg33
(I1
I1100
tp1900
sg35
I50
sg36
g9
(g10
(I0
tp1901
g12
tp1902
Rp1903
(I1
(I1
tp1904
g19
I00
(lp1905
(lp1906
g43
(g30
S'\x01\x00\x00\x00\x00\x00\x00\x00'
p1907
tp1908
Rp1909
aatp1910
bsbsS'creep'
p1911
g2
(g3
g4
Ntp1912
Rp1913
(dp1914
g8
g9
(g10
(I0
tp1915
g12
tp1916
Rp1917
(I1
(I1
tp1918
g19
I00
(lp1919
(lp1920
I236
aatp1921
bsg25
S'lil'
p1922
sg27
g30
sg33
(I1
I1100
tp1923
sg35
I50
sg36
g9
(g10
(I0
tp1924
g12
tp1925
Rp1926
(I1
(I1
tp1927
g19
I00
(lp1928
(lp1929
g43
(g30
S'\x01\x00\x00\x00\x00\x00\x00\x00'
p1930
tp1931
Rp1932
aatp1933
bsbsS'irrational'
p1934
g2
(g3
g4
Ntp1935
Rp1936
(dp1937
g8
g9
(g10
(I0
tp1938
g12
tp1939
Rp1940
(I1
(I1
tp1941
g19
I00
(lp1942
(lp1943
I535
aatp1944
bsg25
S'lil'
p1945
sg27
g30
sg33
(I1
I1100
tp1946
sg35
I50
sg36
g9
(g10
(I0
tp1947
g12
tp1948
Rp1949
(I1
(I1
tp1950
g19
I00
(lp1951
(lp1952
g43
(g30
S'\x01\x00\x00\x00\x00\x00\x00\x00'
p1953
tp1954
Rp1955
aatp1956
bsbsS'anxious'
p1957
g2
(g3
g4
Ntp1958
Rp1959
(dp1960
g8
g9
(g10
(I0
tp1961
g12
tp1962
Rp1963
(I1
(I1
tp1964
g19
I00
(lp1965
(lp1966
I63
aatp1967
bsg25
S'lil'
p1968
sg27
g30
sg33
(I1
I1100
tp1969
sg35
I50
sg36
g9
(g10
(I0
tp1970
g12
tp1971
Rp1972
(I1
(I1
tp1973
g19
I00
(lp1974
(lp1975
g43
(g30
S'\x01\x00\x00\x00\x00\x00\x00\x00'
p1976
tp1977
Rp1978
aatp1979
bsbsS'misfortune'
p1980
g2
(g3
g4
Ntp1981
Rp1982
(dp1983
g8
g9
(g10
(I0
tp1984
g12
tp1985
Rp1986
(I1
(I1
tp1987
g19
I00
(lp1988
(lp1989
I607
aatp1990
bsg25
S'lil'
p1991
sg27
g30
sg33
(I1
I1100
tp1992
sg35
I50
sg36
g9
(g10
(I0
tp1993
g12
tp1994
Rp1995
(I1
(I1
tp1996
g19
I00
(lp1997
(lp1998
g43
(g30
S'\x01\x00\x00\x00\x00\x00\x00\x00'
p1999
tp2000
Rp2001
aatp2002
bsbsS'cooper'
p2003
g2
(g3
g4
Ntp2004
Rp2005
(dp2006
g8
g9
(g10
(I0
tp2007
g12
tp2008
Rp2009
(I1
(I1
tp2010
g19
I00
(lp2011
(lp2012
I227
aatp2013
bsg25
S'lil'
p2014
sg27
g30
sg33
(I1
I1100
tp2015
sg35
I50
sg36
g9
(g10
(I0
tp2016
g12
tp2017
Rp2018
(I1
(I1
tp2019
g19
I00
(lp2020
(lp2021
g43
(g30
S'\x01\x00\x00\x00\x00\x00\x00\x00'
p2022
tp2023
Rp2024
aatp2025
bsbsS'avoid'
p2026
g2
(g3
g4
Ntp2027
Rp2028
(dp2029
g8
g9
(g10
(I0
tp2030
g12
tp2031
Rp2032
(I1
(I1
tp2033
g19
I00
(lp2034
(lp2035
I103
aatp2036
bsg25
S'lil'
p2037
sg27
g30
sg33
(I1
I1100
tp2038
sg35
I50
sg36
g9
(g10
(I0
tp2039
g12
tp2040
Rp2041
(I1
(I1
tp2042
g19
I00
(lp2043
(lp2044
g43
(g30
S'\x01\x00\x00\x00\x00\x00\x00\x00'
p2045
tp2046
Rp2047
aatp2048
bsbsS'artificial'
p2049
g2
(g3
g4
Ntp2050
Rp2051
(dp2052
g8
g9
(g10
(I0
tp2053
g12
tp2054
Rp2055
(I1
(I1
tp2056
g19
I00
(lp2057
(lp2058
I83
aatp2059
bsg25
S'lil'
p2060
sg27
g30
sg33
(I1
I1100
tp2061
sg35
I50
sg36
g9
(g10
(I0
tp2062
g12
tp2063
Rp2064
(I1
(I1
tp2065
g19
I00
(lp2066
(lp2067
g43
(g30
S'\x01\x00\x00\x00\x00\x00\x00\x00'
p2068
tp2069
Rp2070
aatp2071
bsbsS'superb'
p2072
g2
(g3
g4
Ntp2073
Rp2074
(dp2075
g8
g9
(g10
(I0
tp2076
g12
tp2077
Rp2078
(I1
(I1
tp2079
g19
I00
(lp2080
(lp2081
I924
aatp2082
bsg25
S'lil'
p2083
sg27
g30
sg33
(I1
I1100
tp2084
sg35
I50
sg36
g9
(g10
(I0
tp2085
g12
tp2086
Rp2087
(I1
(I1
tp2088
g19
I00
(lp2089
(lp2090
g43
(g30
S'\x01\x00\x00\x00\x00\x00\x00\x00'
p2091
tp2092
Rp2093
aatp2094
bsbsS'transcontinental'
p2095
g2
(g3
g4
Ntp2096
Rp2097
(dp2098
g8
g9
(g10
(I0
tp2099
g12
tp2100
Rp2101
(I1
(I1
tp2102
g19
I00
(lp2103
(lp2104
I977
aatp2105
bsg25
S'lil'
p2106
sg27
g30
sg33
(I1
I1100
tp2107
sg35
I50
sg36
g9
(g10
(I0
tp2108
g12
tp2109
Rp2110
(I1
(I1
tp2111
g19
I00
(lp2112
(lp2113
g43
(g30
S'\x01\x00\x00\x00\x00\x00\x00\x00'
p2114
tp2115
Rp2116
aatp2117
bsbsS'bicameral'
p2118
g2
(g3
g4
Ntp2119
Rp2120
(dp2121
g8
g9
(g10
(I0
tp2122
g12
tp2123
Rp2124
(I1
(I1
tp2125
g19
I00
(lp2126
(lp2127
I130
aatp2128
bsg25
S'lil'
p2129
sg27
g30
sg33
(I1
I1100
tp2130
sg35
I50
sg36
g9
(g10
(I0
tp2131
g12
tp2132
Rp2133
(I1
(I1
tp2134
g19
I00
(lp2135
(lp2136
g43
(g30
S'\x01\x00\x00\x00\x00\x00\x00\x00'
p2137
tp2138
Rp2139
aatp2140
bsbsS'passion'
p2141
g2
(g3
g4
Ntp2142
Rp2143
(dp2144
g8
g9
(g10
(I0
tp2145
g12
tp2146
Rp2147
(I1
(I1
tp2148
g19
I00
(lp2149
(lp2150
I680
aatp2151
bsg25
S'lil'
p2152
sg27
g30
sg33
(I1
I1100
tp2153
sg35
I50
sg36
g9
(g10
(I0
tp2154
g12
tp2155
Rp2156
(I1
(I1
tp2157
g19
I00
(lp2158
(lp2159
g43
(g30
S'\x01\x00\x00\x00\x00\x00\x00\x00'
p2160
tp2161
Rp2162
aatp2163
bsbsS'wondrous'
p2164
g2
(g3
g4
Ntp2165
Rp2166
(dp2167
g8
g9
(g10
(I0
tp2168
g12
tp2169
Rp2170
(I1
(I1
tp2171
g19
I00
(lp2172
(lp2173
I1084
aatp2174
bsg25
S'lil'
p2175
sg27
g30
sg33
(I1
I1100
tp2176
sg35
I50
sg36
g9
(g10
(I0
tp2177
g12
tp2178
Rp2179
(I1
(I1
tp2180
g19
I00
(lp2181
(lp2182
g43
(g30
S'\x01\x00\x00\x00\x00\x00\x00\x00'
p2183
tp2184
Rp2185
aatp2186
bsbsS'malevolent'
p2187
g2
(g3
g4
Ntp2188
Rp2189
(dp2190
g8
g9
(g10
(I0
tp2191
g12
tp2192
Rp2193
(I1
(I1
tp2194
g19
I00
(lp2195
(lp2196
I582
aatp2197
bsg25
S'lil'
p2198
sg27
g30
sg33
(I1
I1100
tp2199
sg35
I50
sg36
g9
(g10
(I0
tp2200
g12
tp2201
Rp2202
(I1
(I1
tp2203
g19
I00
(lp2204
(lp2205
g43
(g30
S'\x01\x00\x00\x00\x00\x00\x00\x00'
p2206
tp2207
Rp2208
aatp2209
bsbsS'horrible'
p2210
g2
(g3
g4
Ntp2211
Rp2212
(dp2213
g8
g9
(g10
(I0
tp2214
g12
tp2215
Rp2216
(I1
(I1
tp2217
g19
I00
(lp2218
(lp2219
I475
aatp2220
bsg25
S'lil'
p2221
sg27
g30
sg33
(I1
I1100
tp2222
sg35
I50
sg36
g9
(g10
(I0
tp2223
g12
tp2224
Rp2225
(I1
(I1
tp2226
g19
I00
(lp2227
(lp2228
g43
(g30
S'\x01\x00\x00\x00\x00\x00\x00\x00'
p2229
tp2230
Rp2231
aatp2232
bsbsS'circumnavigate'
p2233
g2
(g3
g4
Ntp2234
Rp2235
(dp2236
g8
g9
(g10
(I0
tp2237
g12
tp2238
Rp2239
(I1
(I1
tp2240
g19
I00
(lp2241
(lp2242
I179
aatp2243
bsg25
S'lil'
p2244
sg27
g30
sg33
(I1
I1100
tp2245
sg35
I50
sg36
g9
(g10
(I0
tp2246
g12
tp2247
Rp2248
(I1
(I1
tp2249
g19
I00
(lp2250
(lp2251
g43
(g30
S'\x01\x00\x00\x00\x00\x00\x00\x00'
p2252
tp2253
Rp2254
aatp2255
bsbsS'fortitude'
p2256
g2
(g3
g4
Ntp2257
Rp2258
(dp2259
g8
g9
(g10
(I0
tp2260
g12
tp2261
Rp2262
(I1
(I1
tp2263
g19
I00
(lp2264
(lp2265
I419
aatp2266
bsg25
S'lil'
p2267
sg27
g30
sg33
(I1
I1100
tp2268
sg35
I50
sg36
g9
(g10
(I0
tp2269
g12
tp2270
Rp2271
(I1
(I1
tp2272
g19
I00
(lp2273
(lp2274
g43
(g30
S'\x01\x00\x00\x00\x00\x00\x00\x00'
p2275
tp2276
Rp2277
aatp2278
bsbsS'receiving'
p2279
g2
(g3
g4
Ntp2280
Rp2281
(dp2282
g8
g9
(g10
(I0
tp2283
g12
tp2284
Rp2285
(I1
(I1
tp2286
g19
I00
(lp2287
(lp2288
I772
aatp2289
bsg25
S'lil'
p2290
sg27
g30
sg33
(I1
I1100
tp2291
sg35
I50
sg36
g9
(g10
(I0
tp2292
g12
tp2293
Rp2294
(I1
(I1
tp2295
g19
I00
(lp2296
(lp2297
g43
(g30
S'\x01\x00\x00\x00\x00\x00\x00\x00'
p2298
tp2299
Rp2300
aatp2301
bsbsS'adorable'
p2302
g2
(g3
g4
Ntp2303
Rp2304
(dp2305
g8
g9
(g10
(I0
tp2306
g12
tp2307
Rp2308
(I1
(I1
tp2309
g19
I00
(lp2310
(lp2311
I28
aatp2312
bsg25
S'lil'
p2313
sg27
g30
sg33
(I1
I1100
tp2314
sg35
I50
sg36
g9
(g10
(I0
tp2315
g12
tp2316
Rp2317
(I1
(I1
tp2318
g19
I00
(lp2319
(lp2320
g43
(g30
S'\x01\x00\x00\x00\x00\x00\x00\x00'
p2321
tp2322
Rp2323
aatp2324
bsbsS'quitting'
p2325
g2
(g3
g4
Ntp2326
Rp2327
(dp2328
g8
g9
(g10
(I0
tp2329
g12
tp2330
Rp2331
(I1
(I1
tp2332
g19
I00
(lp2333
(lp2334
I755
aatp2335
bsg25
S'lil'
p2336
sg27
g30
sg33
(I1
I1100
tp2337
sg35
I50
sg36
g9
(g10
(I0
tp2338
g12
tp2339
Rp2340
(I1
(I1
tp2341
g19
I00
(lp2342
(lp2343
g43
(g30
S'\x01\x00\x00\x00\x00\x00\x00\x00'
p2344
tp2345
Rp2346
aatp2347
bsbsS'disinterested'
p2348
g2
(g3
g4
Ntp2349
Rp2350
(dp2351
g8
g9
(g10
(I0
tp2352
g12
tp2353
Rp2354
(I1
(I1
tp2355
g19
I00
(lp2356
(lp2357
I280
aatp2358
bsg25
S'lil'
p2359
sg27
g30
sg33
(I1
I1100
tp2360
sg35
I50
sg36
g9
(g10
(I0
tp2361
g12
tp2362
Rp2363
(I1
(I1
tp2364
g19
I00
(lp2365
(lp2366
g43
(g30
S'\x01\x00\x00\x00\x00\x00\x00\x00'
p2367
tp2368
Rp2369
aatp2370
bsbsS'melancholy'
p2371
g2
(g3
g4
Ntp2372
Rp2373
(dp2374
g8
g9
(g10
(I0
tp2375
g12
tp2376
Rp2377
(I1
(I1
tp2378
g19
I00
(lp2379
(lp2380
I597
aatp2381
bsg25
S'lil'
p2382
sg27
g30
sg33
(I1
I1100
tp2383
sg35
I50
sg36
g9
(g10
(I0
tp2384
g12
tp2385
Rp2386
(I1
(I1
tp2387
g19
I00
(lp2388
(lp2389
g43
(g30
S'\x01\x00\x00\x00\x00\x00\x00\x00'
p2390
tp2391
Rp2392
aatp2393
bsbsS'vertical'
p2394
g2
(g3
g4
Ntp2395
Rp2396
(dp2397
g8
g9
(g10
(I0
tp2398
g12
tp2399
Rp2400
(I1
(I1
tp2401
g19
I00
(lp2402
(lp2403
I1046
aatp2404
bsg25
S'lil'
p2405
sg27
g30
sg33
(I1
I1100
tp2406
sg35
I50
sg36
g9
(g10
(I0
tp2407
g12
tp2408
Rp2409
(I1
(I1
tp2410
g19
I00
(lp2411
(lp2412
g43
(g30
S'\x01\x00\x00\x00\x00\x00\x00\x00'
p2413
tp2414
Rp2415
aatp2416
bsbsS'defend'
p2417
g2
(g3
g4
Ntp2418
Rp2419
(dp2420
g8
g9
(g10
(I0
tp2421
g12
tp2422
Rp2423
(I1
(I1
tp2424
g19
I00
(lp2425
(lp2426
I257
aatp2427
bsg25
S'lil'
p2428
sg27
g30
sg33
(I1
I1100
tp2429
sg35
I50
sg36
g9
(g10
(I0
tp2430
g12
tp2431
Rp2432
(I1
(I1
tp2433
g19
I00
(lp2434
(lp2435
g43
(g30
S'\x01\x00\x00\x00\x00\x00\x00\x00'
p2436
tp2437
Rp2438
aatp2439
bsbsS'importance'
p2440
g2
(g3
g4
Ntp2441
Rp2442
(dp2443
g8
g9
(g10
(I0
tp2444
g12
tp2445
Rp2446
(I1
(I1
tp2447
g19
I00
(lp2448
(lp2449
I492
aatp2450
bsg25
S'lil'
p2451
sg27
g30
sg33
(I1
I1100
tp2452
sg35
I50
sg36
g9
(g10
(I0
tp2453
g12
tp2454
Rp2455
(I1
(I1
tp2456
g19
I00
(lp2457
(lp2458
g43
(g30
S'\x01\x00\x00\x00\x00\x00\x00\x00'
p2459
tp2460
Rp2461
aatp2462
bsbsS'assertive'
p2463
g2
(g3
g4
Ntp2464
Rp2465
(dp2466
g8
g9
(g10
(I0
tp2467
g12
tp2468
Rp2469
(I1
(I1
tp2470
g19
I00
(lp2471
(lp2472
I88
aatp2473
bsg25
S'lil'
p2474
sg27
g30
sg33
(I1
I1100
tp2475
sg35
I50
sg36
g9
(g10
(I0
tp2476
g12
tp2477
Rp2478
(I1
(I1
tp2479
g19
I00
(lp2480
(lp2481
g43
(g30
S'\x01\x00\x00\x00\x00\x00\x00\x00'
p2482
tp2483
Rp2484
aatp2485
bsbsS'equivalent'
p2486
g2
(g3
g4
Ntp2487
Rp2488
(dp2489
g8
g9
(g10
(I0
tp2490
g12
tp2491
Rp2492
(I1
(I1
tp2493
g19
I00
(lp2494
(lp2495
I346
aatp2496
bsg25
S'lil'
p2497
sg27
g30
sg33
(I1
I1100
tp2498
sg35
I50
sg36
g9
(g10
(I0
tp2499
g12
tp2500
Rp2501
(I1
(I1
tp2502
g19
I00
(lp2503
(lp2504
g43
(g30
S'\x01\x00\x00\x00\x00\x00\x00\x00'
p2505
tp2506
Rp2507
aatp2508
bsbsS'eon'
p2509
g2
(g3
g4
Ntp2510
Rp2511
(dp2512
g8
g9
(g10
(I0
tp2513
g12
tp2514
Rp2515
(I1
(I1
tp2516
g19
I00
(lp2517
(lp2518
I343
aatp2519
bsg25
S'lil'
p2520
sg27
g30
sg33
(I1
I1100
tp2521
sg35
I50
sg36
g9
(g10
(I0
tp2522
g12
tp2523
Rp2524
(I1
(I1
tp2525
g19
I00
(lp2526
(lp2527
g43
(g30
S'\x01\x00\x00\x00\x00\x00\x00\x00'
p2528
tp2529
Rp2530
aatp2531
bsbsS'tempo'
p2532
g2
(g3
g4
Ntp2533
Rp2534
(dp2535
g8
g9
(g10
(I0
tp2536
g12
tp2537
Rp2538
(I1
(I1
tp2539
g19
I00
(lp2540
(lp2541
I940
aatp2542
bsg25
S'lil'
p2543
sg27
g30
sg33
(I1
I1100
tp2544
sg35
I50
sg36
g9
(g10
(I0
tp2545
g12
tp2546
Rp2547
(I1
(I1
tp2548
g19
I00
(lp2549
(lp2550
g43
(g30
S'\x01\x00\x00\x00\x00\x00\x00\x00'
p2551
tp2552
Rp2553
aatp2554
bsbsS'impulsive'
p2555
g2
(g3
g4
Ntp2556
Rp2557
(dp2558
g8
g9
(g10
(I0
tp2559
g12
tp2560
Rp2561
(I1
(I1
tp2562
g19
I00
(lp2563
(lp2564
I499
aatp2565
bsg25
S'lil'
p2566
sg27
g30
sg33
(I1
I1100
tp2567
sg35
I50
sg36
g9
(g10
(I0
tp2568
g12
tp2569
Rp2570
(I1
(I1
tp2571
g19
I00
(lp2572
(lp2573
g43
(g30
S'\x01\x00\x00\x00\x00\x00\x00\x00'
p2574
tp2575
Rp2576
aatp2577
bsbsS'conglomerate'
p2578
g2
(g3
g4
Ntp2579
Rp2580
(dp2581
g8
g9
(g10
(I0
tp2582
g12
tp2583
Rp2584
(I1
(I1
tp2585
g19
I00
(lp2586
(lp2587
I210
aatp2588
bsg25
S'lil'
p2589
sg27
g30
sg33
(I1
I1100
tp2590
sg35
I50
sg36
g9
(g10
(I0
tp2591
g12
tp2592
Rp2593
(I1
(I1
tp2594
g19
I00
(lp2595
(lp2596
g43
(g30
S'\x01\x00\x00\x00\x00\x00\x00\x00'
p2597
tp2598
Rp2599
aatp2600
bsbsS'adept'
p2601
g2
(g3
g4
Ntp2602
Rp2603
(dp2604
g8
g9
(g10
(I0
tp2605
g12
tp2606
Rp2607
(I1
(I1
tp2608
g19
I00
(lp2609
(lp2610
I24
aatp2611
bsg25
S'lil'
p2612
sg27
g30
sg33
(I1
I1100
tp2613
sg35
I50
sg36
g9
(g10
(I0
tp2614
g12
tp2615
Rp2616
(I1
(I1
tp2617
g19
I00
(lp2618
(lp2619
g43
(g30
S'\x01\x00\x00\x00\x00\x00\x00\x00'
p2620
tp2621
Rp2622
aatp2623
bsbsS'rapid'
p2624
g2
(g3
g4
Ntp2625
Rp2626
(dp2627
g8
g9
(g10
(I0
tp2628
g12
tp2629
Rp2630
(I1
(I1
tp2631
g19
I00
(lp2632
(lp2633
I759
aatp2634
bsg25
S'lil'
p2635
sg27
g30
sg33
(I1
I1100
tp2636
sg35
I50
sg36
g9
(g10
(I0
tp2637
g12
tp2638
Rp2639
(I1
(I1
tp2640
g19
I00
(lp2641
(lp2642
g43
(g30
S'\x01\x00\x00\x00\x00\x00\x00\x00'
p2643
tp2644
Rp2645
aatp2646
bsbsS'ascites'
p2647
g2
(g3
g4
Ntp2648
Rp2649
(dp2650
g8
g9
(g10
(I0
tp2651
g12
tp2652
Rp2653
(I1
(I1
tp2654
g19
I00
(lp2655
(lp2656
I85
aatp2657
bsg25
S'lil'
p2658
sg27
g30
sg33
(I1
I1100
tp2659
sg35
I50
sg36
g9
(g10
(I0
tp2660
g12
tp2661
Rp2662
(I1
(I1
tp2663
g19
I00
(lp2664
(lp2665
g43
(g30
S'\x01\x00\x00\x00\x00\x00\x00\x00'
p2666
tp2667
Rp2668
aatp2669
bsbsS'quick-tempered'
p2670
g2
(g3
g4
Ntp2671
Rp2672
(dp2673
g8
g9
(g10
(I0
tp2674
g12
tp2675
Rp2676
(I1
(I1
tp2677
g19
I00
(lp2678
(lp2679
I753
aatp2680
bsg25
S'lil'
p2681
sg27
g30
sg33
(I1
I1100
tp2682
sg35
I50
sg36
g9
(g10
(I0
tp2683
g12
tp2684
Rp2685
(I1
(I1
tp2686
g19
I00
(lp2687
(lp2688
g43
(g30
S'\x01\x00\x00\x00\x00\x00\x00\x00'
p2689
tp2690
Rp2691
aatp2692
bsbsS'ache'
p2693
g2
(g3
g4
Ntp2694
Rp2695
(dp2696
g8
g9
(g10
(I0
tp2697
g12
tp2698
Rp2699
(I1
(I1
tp2700
g19
I00
(lp2701
(lp2702
I15
aatp2703
bsg25
S'lil'
p2704
sg27
g30
sg33
(I1
I1100
tp2705
sg35
I50
sg36
g9
(g10
(I0
tp2706
g12
tp2707
Rp2708
(I1
(I1
tp2709
g19
I00
(lp2710
(lp2711
g43
(g30
S'\x01\x00\x00\x00\x00\x00\x00\x00'
p2712
tp2713
Rp2714
aatp2715
bsbsS'post'
p2716
g2
(g3
g4
Ntp2717
Rp2718
(dp2719
g8
g9
(g10
(I0
tp2720
g12
tp2721
Rp2722
(I1
(I1
tp2723
g19
I00
(lp2724
(lp2725
I710
aatp2726
bsg25
S'lil'
p2727
sg27
g30
sg33
(I1
I1100
tp2728
sg35
I50
sg36
g9
(g10
(I0
tp2729
g12
tp2730
Rp2731
(I1
(I1
tp2732
g19
I00
(lp2733
(lp2734
g43
(g30
S'\x01\x00\x00\x00\x00\x00\x00\x00'
p2735
tp2736
Rp2737
aatp2738
bsbsS'strong'
p2739
g2
(g3
g4
Ntp2740
Rp2741
(dp2742
g8
g9
(g10
(I0
tp2743
g12
tp2744
Rp2745
(I1
(I1
tp2746
g19
I00
(lp2747
(lp2748
I907
aatp2749
bsg25
S'lil'
p2750
sg27
g30
sg33
(I1
I1100
tp2751
sg35
I50
sg36
g9
(g10
(I0
tp2752
g12
tp2753
Rp2754
(I1
(I1
tp2755
g19
I00
(lp2756
(lp2757
g43
(g30
S'\x01\x00\x00\x00\x00\x00\x00\x00'
p2758
tp2759
Rp2760
aatp2761
bsbsS'subtract'
p2762
g2
(g3
g4
Ntp2763
Rp2764
(dp2765
g8
g9
(g10
(I0
tp2766
g12
tp2767
Rp2768
(I1
(I1
tp2769
g19
I00
(lp2770
(lp2771
I915
aatp2772
bsg25
S'lil'
p2773
sg27
g30
sg33
(I1
I1100
tp2774
sg35
I50
sg36
g9
(g10
(I0
tp2775
g12
tp2776
Rp2777
(I1
(I1
tp2778
g19
I00
(lp2779
(lp2780
g43
(g30
S'\x01\x00\x00\x00\x00\x00\x00\x00'
p2781
tp2782
Rp2783
aatp2784
bsbsS'inevitable'
p2785
g2
(g3
g4
Ntp2786
Rp2787
(dp2788
g8
g9
(g10
(I0
tp2789
g12
tp2790
Rp2791
(I1
(I1
tp2792
g19
I00
(lp2793
(lp2794
I511
aatp2795
bsg25
S'lil'
p2796
sg27
g30
sg33
(I1
I1100
tp2797
sg35
I50
sg36
g9
(g10
(I0
tp2798
g12
tp2799
Rp2800
(I1
(I1
tp2801
g19
I00
(lp2802
(lp2803
g43
(g30
S'\x01\x00\x00\x00\x00\x00\x00\x00'
p2804
tp2805
Rp2806
aatp2807
bsbsS'noisy'
p2808
g2
(g3
g4
Ntp2809
Rp2810
(dp2811
g8
g9
(g10
(I0
tp2812
g12
tp2813
Rp2814
(I1
(I1
tp2815
g19
I00
(lp2816
(lp2817
I629
aatp2818
bsg25
S'lil'
p2819
sg27
g30
sg33
(I1
I1100
tp2820
sg35
I50
sg36
g9
(g10
(I0
tp2821
g12
tp2822
Rp2823
(I1
(I1
tp2824
g19
I00
(lp2825
(lp2826
g43
(g30
S'\x01\x00\x00\x00\x00\x00\x00\x00'
p2827
tp2828
Rp2829
aatp2830
bsbsS'revolutionary'
p2831
g2
(g3
g4
Ntp2832
Rp2833
(dp2834
g8
g9
(g10
(I0
tp2835
g12
tp2836
Rp2837
(I1
(I1
tp2838
g19
I00
(lp2839
(lp2840
I804
aatp2841
bsg25
S'lil'
p2842
sg27
g30
sg33
(I1
I1100
tp2843
sg35
I50
sg36
g9
(g10
(I0
tp2844
g12
tp2845
Rp2846
(I1
(I1
tp2847
g19
I00
(lp2848
(lp2849
g43
(g30
S'\x01\x00\x00\x00\x00\x00\x00\x00'
p2850
tp2851
Rp2852
aatp2853
bsbsS'rare'
p2854
g2
(g3
g4
Ntp2855
Rp2856
(dp2857
g8
g9
(g10
(I0
tp2858
g12
tp2859
Rp2860
(I1
(I1
tp2861
g19
I00
(lp2862
(lp2863
I760
aatp2864
bsg25
S'lil'
p2865
sg27
g30
sg33
(I1
I1100
tp2866
sg35
I50
sg36
g9
(g10
(I0
tp2867
g12
tp2868
Rp2869
(I1
(I1
tp2870
g19
I00
(lp2871
(lp2872
g43
(g30
S'\x01\x00\x00\x00\x00\x00\x00\x00'
p2873
tp2874
Rp2875
aatp2876
bsbsS'surrender'
p2877
g2
(g3
g4
Ntp2878
Rp2879
(dp2880
g8
g9
(g10
(I0
tp2881
g12
tp2882
Rp2883
(I1
(I1
tp2884
g19
I00
(lp2885
(lp2886
I930
aatp2887
bsg25
S'lil'
p2888
sg27
g30
sg33
(I1
I1100
tp2889
sg35
I50
sg36
g9
(g10
(I0
tp2890
g12
tp2891
Rp2892
(I1
(I1
tp2893
g19
I00
(lp2894
(lp2895
g43
(g30
S'\x01\x00\x00\x00\x00\x00\x00\x00'
p2896
tp2897
Rp2898
aatp2899
bsbsS'tolerant'
p2900
g2
(g3
g4
Ntp2901
Rp2902
(dp2903
g8
g9
(g10
(I0
tp2904
g12
tp2905
Rp2906
(I1
(I1
tp2907
g19
I00
(lp2908
(lp2909
I968
aatp2910
bsg25
S'lil'
p2911
sg27
g30
sg33
(I1
I1100
tp2912
sg35
I50
sg36
g9
(g10
(I0
tp2913
g12
tp2914
Rp2915
(I1
(I1
tp2916
g19
I00
(lp2917
(lp2918
g43
(g30
S'\x01\x00\x00\x00\x00\x00\x00\x00'
p2919
tp2920
Rp2921
aatp2922
bsbsS'flawless'
p2923
g2
(g3
g4
Ntp2924
Rp2925
(dp2926
g8
g9
(g10
(I0
tp2927
g12
tp2928
Rp2929
(I1
(I1
tp2930
g19
I00
(lp2931
(lp2932
I405
aatp2933
bsg25
S'lil'
p2934
sg27
g30
sg33
(I1
I1100
tp2935
sg35
I50
sg36
g9
(g10
(I0
tp2936
g12
tp2937
Rp2938
(I1
(I1
tp2939
g19
I00
(lp2940
(lp2941
g43
(g30
S'\x01\x00\x00\x00\x00\x00\x00\x00'
p2942
tp2943
Rp2944
aatp2945
bsbsS'simultaneous'
p2946
g2
(g3
g4
Ntp2947
Rp2948
(dp2949
g8
g9
(g10
(I0
tp2950
g12
tp2951
Rp2952
(I1
(I1
tp2953
g19
I00
(lp2954
(lp2955
I854
aatp2956
bsg25
S'lil'
p2957
sg27
g30
sg33
(I1
I1100
tp2958
sg35
I50
sg36
g9
(g10
(I0
tp2959
g12
tp2960
Rp2961
(I1
(I1
tp2962
g19
I00
(lp2963
(lp2964
g43
(g30
S'\x01\x00\x00\x00\x00\x00\x00\x00'
p2965
tp2966
Rp2967
aatp2968
bsbsS'oppose'
p2969
g2
(g3
g4
Ntp2970
Rp2971
(dp2972
g8
g9
(g10
(I0
tp2973
g12
tp2974
Rp2975
(I1
(I1
tp2976
g19
I00
(lp2977
(lp2978
I660
aatp2979
bsg25
S'lil'
p2980
sg27
g30
sg33
(I1
I1100
tp2981
sg35
I50
sg36
g9
(g10
(I0
tp2982
g12
tp2983
Rp2984
(I1
(I1
tp2985
g19
I00
(lp2986
(lp2987
g43
(g30
S'\x01\x00\x00\x00\x00\x00\x00\x00'
p2988
tp2989
Rp2990
aatp2991
bsbsS'assumed'
p2992
g2
(g3
g4
Ntp2993
Rp2994
(dp2995
g8
g9
(g10
(I0
tp2996
g12
tp2997
Rp2998
(I1
(I1
tp2999
g19
I00
(lp3000
(lp3001
I93
aatp3002
bsg25
S'lil'
p3003
sg27
g30
sg33
(I1
I1100
tp3004
sg35
I50
sg36
g9
(g10
(I0
tp3005
g12
tp3006
Rp3007
(I1
(I1
tp3008
g19
I00
(lp3009
(lp3010
g43
(g30
S'\x01\x00\x00\x00\x00\x00\x00\x00'
p3011
tp3012
Rp3013
aatp3014
bsbsS'mixed'
p3015
g2
(g3
g4
Ntp3016
Rp3017
(dp3018
g8
g9
(g10
(I0
tp3019
g12
tp3020
Rp3021
(I1
(I1
tp3022
g19
I00
(lp3023
(lp3024
I611
aatp3025
bsg25
S'lil'
p3026
sg27
g30
sg33
(I1
I1100
tp3027
sg35
I50
sg36
g9
(g10
(I0
tp3028
g12
tp3029
Rp3030
(I1
(I1
tp3031
g19
I00
(lp3032
(lp3033
g43
(g30
S'\x01\x00\x00\x00\x00\x00\x00\x00'
p3034
tp3035
Rp3036
aatp3037
bsbsS'discard'
p3038
g2
(g3
g4
Ntp3039
Rp3040
(dp3041
g8
g9
(g10
(I0
tp3042
g12
tp3043
Rp3044
(I1
(I1
tp3045
g19
I00
(lp3046
(lp3047
I277
aatp3048
bsg25
S'lil'
p3049
sg27
g30
sg33
(I1
I1100
tp3050
sg35
I50
sg36
g9
(g10
(I0
tp3051
g12
tp3052
Rp3053
(I1
(I1
tp3054
g19
I00
(lp3055
(lp3056
g43
(g30
S'\x01\x00\x00\x00\x00\x00\x00\x00'
p3057
tp3058
Rp3059
aatp3060
bsbsS'cooperating'
p3061
g2
(g3
g4
Ntp3062
Rp3063
(dp3064
g8
g9
(g10
(I0
tp3065
g12
tp3066
Rp3067
(I1
(I1
tp3068
g19
I00
(lp3069
(lp3070
I228
aatp3071
bsg25
S'lil'
p3072
sg27
g30
sg33
(I1
I1100
tp3073
sg35
I50
sg36
g9
(g10
(I0
tp3074
g12
tp3075
Rp3076
(I1
(I1
tp3077
g19
I00
(lp3078
(lp3079
g43
(g30
S'\x01\x00\x00\x00\x00\x00\x00\x00'
p3080
tp3081
Rp3082
aatp3083
bsbsS'user'
p3084
g2
(g3
g4
Ntp3085
Rp3086
(dp3087
g8
g9
(g10
(I0
tp3088
g12
tp3089
Rp3090
(I1
(I1
tp3091
g19
I00
(lp3092
(lp3093
I1031
aatp3094
bsg25
S'lil'
p3095
sg27
g30
sg33
(I1
I1100
tp3096
sg35
I50
sg36
g9
(g10
(I0
tp3097
g12
tp3098
Rp3099
(I1
(I1
tp3100
g19
I00
(lp3101
(lp3102
g43
(g30
S'\x01\x00\x00\x00\x00\x00\x00\x00'
p3103
tp3104
Rp3105
aatp3106
bsbsS'detente'
p3107
g2
(g3
g4
Ntp3108
Rp3109
(dp3110
g8
g9
(g10
(I0
tp3111
g12
tp3112
Rp3113
(I1
(I1
tp3114
g19
I00
(lp3115
(lp3116
I272
aatp3117
bsg25
S'lil'
p3118
sg27
g30
sg33
(I1
I1100
tp3119
sg35
I50
sg36
g9
(g10
(I0
tp3120
g12
tp3121
Rp3122
(I1
(I1
tp3123
g19
I00
(lp3124
(lp3125
g43
(g30
S'\x01\x00\x00\x00\x00\x00\x00\x00'
p3126
tp3127
Rp3128
aatp3129
bsbsS'respond'
p3130
g2
(g3
g4
Ntp3131
Rp3132
(dp3133
g8
g9
(g10
(I0
tp3134
g12
tp3135
Rp3136
(I1
(I1
tp3137
g19
I00
(lp3138
(lp3139
I796
aatp3140
bsg25
S'lil'
p3141
sg27
g30
sg33
(I1
I1100
tp3142
sg35
I50
sg36
g9
(g10
(I0
tp3143
g12
tp3144
Rp3145
(I1
(I1
tp3146
g19
I00
(lp3147
(lp3148
g43
(g30
S'\x01\x00\x00\x00\x00\x00\x00\x00'
p3149
tp3150
Rp3151
aatp3152
bsbsS'fantastic'
p3153
g2
(g3
g4
Ntp3154
Rp3155
(dp3156
g8
g9
(g10
(I0
tp3157
g12
tp3158
Rp3159
(I1
(I1
tp3160
g19
I00
(lp3161
(lp3162
I390
aatp3163
bsg25
S'lil'
p3164
sg27
g30
sg33
(I1
I1100
tp3165
sg35
I50
sg36
g9
(g10
(I0
tp3166
g12
tp3167
Rp3168
(I1
(I1
tp3169
g19
I00
(lp3170
(lp3171
g43
(g30
S'\x01\x00\x00\x00\x00\x00\x00\x00'
p3172
tp3173
Rp3174
aatp3175
bsbsS'eternal'
p3176
g2
(g3
g4
Ntp3177
Rp3178
(dp3179
g8
g9
(g10
(I0
tp3180
g12
tp3181
Rp3182
(I1
(I1
tp3183
g19
I00
(lp3184
(lp3185
I351
aatp3186
bsg25
S'lil'
p3187
sg27
g30
sg33
(I1
I1100
tp3188
sg35
I50
sg36
g9
(g10
(I0
tp3189
g12
tp3190
Rp3191
(I1
(I1
tp3192
g19
I00
(lp3193
(lp3194
g43
(g30
S'\x01\x00\x00\x00\x00\x00\x00\x00'
p3195
tp3196
Rp3197
aatp3198
bsbsS'verbose'
p3199
g2
(g3
g4
Ntp3200
Rp3201
(dp3202
g8
g9
(g10
(I0
tp3203
g12
tp3204
Rp3205
(I1
(I1
tp3206
g19
I00
(lp3207
(lp3208
I1045
aatp3209
bsg25
S'lil'
p3210
sg27
g30
sg33
(I1
I1100
tp3211
sg35
I50
sg36
g9
(g10
(I0
tp3212
g12
tp3213
Rp3214
(I1
(I1
tp3215
g19
I00
(lp3216
(lp3217
g43
(g30
S'\x01\x00\x00\x00\x00\x00\x00\x00'
p3218
tp3219
Rp3220
aatp3221
bsbsS'extra'
p3222
g2
(g3
g4
Ntp3223
Rp3224
(dp3225
g8
g9
(g10
(I0
tp3226
g12
tp3227
Rp3228
(I1
(I1
tp3229
g19
I00
(lp3230
(lp3231
I378
aatp3232
bsg25
S'lil'
p3233
sg27
g30
sg33
(I1
I1100
tp3234
sg35
I50
sg36
g9
(g10
(I0
tp3235
g12
tp3236
Rp3237
(I1
(I1
tp3238
g19
I00
(lp3239
(lp3240
g43
(g30
S'\x01\x00\x00\x00\x00\x00\x00\x00'
p3241
tp3242
Rp3243
aatp3244
bsbsS'simple'
p3245
g2
(g3
g4
Ntp3246
Rp3247
(dp3248
g8
g9
(g10
(I0
tp3249
g12
tp3250
Rp3251
(I1
(I1
tp3252
g19
I00
(lp3253
(lp3254
I852
aatp3255
bsg25
S'lil'
p3256
sg27
g30
sg33
(I1
I1100
tp3257
sg35
I50
sg36
g9
(g10
(I0
tp3258
g12
tp3259
Rp3260
(I1
(I1
tp3261
g19
I00
(lp3262
(lp3263
g43
(g30
S'\x01\x00\x00\x00\x00\x00\x00\x00'
p3264
tp3265
Rp3266
aatp3267
bsbsS'seems'
p3268
g2
(g3
g4
Ntp3269
Rp3270
(dp3271
g8
g9
(g10
(I0
tp3272
g12
tp3273
Rp3274
(I1
(I1
tp3275
g19
I00
(lp3276
(lp3277
I826
aatp3278
bsg25
S'lil'
p3279
sg27
g30
sg33
(I1
I1100
tp3280
sg35
I50
sg36
g9
(g10
(I0
tp3281
g12
tp3282
Rp3283
(I1
(I1
tp3284
g19
I00
(lp3285
(lp3286
g43
(g30
S'\x01\x00\x00\x00\x00\x00\x00\x00'
p3287
tp3288
Rp3289
aatp3290
bsbsS'skilled'
p3291
g2
(g3
g4
Ntp3292
Rp3293
(dp3294
g8
g9
(g10
(I0
tp3295
g12
tp3296
Rp3297
(I1
(I1
tp3298
g19
I00
(lp3299
(lp3300
I858
aatp3301
bsg25
S'lil'
p3302
sg27
g30
sg33
(I1
I1100
tp3303
sg35
I50
sg36
g9
(g10
(I0
tp3304
g12
tp3305
Rp3306
(I1
(I1
tp3307
g19
I00
(lp3308
(lp3309
g43
(g30
S'\x01\x00\x00\x00\x00\x00\x00\x00'
p3310
tp3311
Rp3312
aatp3313
bsbsS'homonym'
p3314
g2
(g3
g4
Ntp3315
Rp3316
(dp3317
g8
g9
(g10
(I0
tp3318
g12
tp3319
Rp3320
(I1
(I1
tp3321
g19
I00
(lp3322
(lp3323
I470
aatp3324
bsg25
S'lil'
p3325
sg27
g30
sg33
(I1
I1100
tp3326
sg35
I50
sg36
g9
(g10
(I0
tp3327
g12
tp3328
Rp3329
(I1
(I1
tp3330
g19
I00
(lp3331
(lp3332
g43
(g30
S'\x01\x00\x00\x00\x00\x00\x00\x00'
p3333
tp3334
Rp3335
aatp3336
bsbsS'inexplicable'
p3337
g2
(g3
g4
Ntp3338
Rp3339
(dp3340
g8
g9
(g10
(I0
tp3341
g12
tp3342
Rp3343
(I1
(I1
tp3344
g19
I00
(lp3345
(lp3346
I513
aatp3347
bsg25
S'lil'
p3348
sg27
g30
sg33
(I1
I1100
tp3349
sg35
I50
sg36
g9
(g10
(I0
tp3350
g12
tp3351
Rp3352
(I1
(I1
tp3353
g19
I00
(lp3354
(lp3355
g43
(g30
S'\x01\x00\x00\x00\x00\x00\x00\x00'
p3356
tp3357
Rp3358
aatp3359
bsbsS'loner'
p3360
g2
(g3
g4
Ntp3361
Rp3362
(dp3363
g8
g9
(g10
(I0
tp3364
g12
tp3365
Rp3366
(I1
(I1
tp3367
g19
I00
(lp3368
(lp3369
I571
aatp3370
bsg25
S'lil'
p3371
sg27
g30
sg33
(I1
I1100
tp3372
sg35
I50
sg36
g9
(g10
(I0
tp3373
g12
tp3374
Rp3375
(I1
(I1
tp3376
g19
I00
(lp3377
(lp3378
g43
(g30
S'\x01\x00\x00\x00\x00\x00\x00\x00'
p3379
tp3380
Rp3381
aatp3382
bsbsS'elude'
p3383
g2
(g3
g4
Ntp3384
Rp3385
(dp3386
g8
g9
(g10
(I0
tp3387
g12
tp3388
Rp3389
(I1
(I1
tp3390
g19
I00
(lp3391
(lp3392
I319
aatp3393
bsg25
S'lil'
p3394
sg27
g30
sg33
(I1
I1100
tp3395
sg35
I50
sg36
g9
(g10
(I0
tp3396
g12
tp3397
Rp3398
(I1
(I1
tp3399
g19
I00
(lp3400
(lp3401
g43
(g30
S'\x01\x00\x00\x00\x00\x00\x00\x00'
p3402
tp3403
Rp3404
aatp3405
bsbsS'exploit'
p3406
g2
(g3
g4
Ntp3407
Rp3408
(dp3409
g8
g9
(g10
(I0
tp3410
g12
tp3411
Rp3412
(I1
(I1
tp3413
g19
I00
(lp3414
(lp3415
I373
aatp3416
bsg25
S'lil'
p3417
sg27
g30
sg33
(I1
I1100
tp3418
sg35
I50
sg36
g9
(g10
(I0
tp3419
g12
tp3420
Rp3421
(I1
(I1
tp3422
g19
I00
(lp3423
(lp3424
g43
(g30
S'\x01\x00\x00\x00\x00\x00\x00\x00'
p3425
tp3426
Rp3427
aatp3428
bsbsS'trendsetting'
p3429
g2
(g3
g4
Ntp3430
Rp3431
(dp3432
g8
g9
(g10
(I0
tp3433
g12
tp3434
Rp3435
(I1
(I1
tp3436
g19
I00
(lp3437
(lp3438
I984
aatp3439
bsg25
S'lil'
p3440
sg27
g30
sg33
(I1
I1100
tp3441
sg35
I50
sg36
g9
(g10
(I0
tp3442
g12
tp3443
Rp3444
(I1
(I1
tp3445
g19
I00
(lp3446
(lp3447
g43
(g30
S'\x01\x00\x00\x00\x00\x00\x00\x00'
p3448
tp3449
Rp3450
aatp3451
bsbsS'promise'
p3452
g2
(g3
g4
Ntp3453
Rp3454
(dp3455
g8
g9
(g10
(I0
tp3456
g12
tp3457
Rp3458
(I1
(I1
tp3459
g19
I00
(lp3460
(lp3461
I731
aatp3462
bsg25
S'lil'
p3463
sg27
g30
sg33
(I1
I1100
tp3464
sg35
I50
sg36
g9
(g10
(I0
tp3465
g12
tp3466
Rp3467
(I1
(I1
tp3468
g19
I00
(lp3469
(lp3470
g43
(g30
S'\x01\x00\x00\x00\x00\x00\x00\x00'
p3471
tp3472
Rp3473
aatp3474
bsbsS'stern'
p3475
g2
(g3
g4
Ntp3476
Rp3477
(dp3478
g8
g9
(g10
(I0
tp3479
g12
tp3480
Rp3481
(I1
(I1
tp3482
g19
I00
(lp3483
(lp3484
I898
aatp3485
bsg25
S'lil'
p3486
sg27
g30
sg33
(I1
I1100
tp3487
sg35
I50
sg36
g9
(g10
(I0
tp3488
g12
tp3489
Rp3490
(I1
(I1
tp3491
g19
I00
(lp3492
(lp3493
g43
(g30
S'\x01\x00\x00\x00\x00\x00\x00\x00'
p3494
tp3495
Rp3496
aatp3497
bsbsS'oblivious'
p3498
g2
(g3
g4
Ntp3499
Rp3500
(dp3501
g8
g9
(g10
(I0
tp3502
g12
tp3503
Rp3504
(I1
(I1
tp3505
g19
I00
(lp3506
(lp3507
I641
aatp3508
bsg25
S'lil'
p3509
sg27
g30
sg33
(I1
I1100
tp3510
sg35
I50
sg36
g9
(g10
(I0
tp3511
g12
tp3512
Rp3513
(I1
(I1
tp3514
g19
I00
(lp3515
(lp3516
g43
(g30
S'\x01\x00\x00\x00\x00\x00\x00\x00'
p3517
tp3518
Rp3519
aatp3520
bsbsS'unattainable'
p3521
g2
(g3
g4
Ntp3522
Rp3523
(dp3524
g8
g9
(g10
(I0
tp3525
g12
tp3526
Rp3527
(I1
(I1
tp3528
g19
I00
(lp3529
(lp3530
I997
aatp3531
bsg25
S'lil'
p3532
sg27
g30
sg33
(I1
I1100
tp3533
sg35
I50
sg36
g9
(g10
(I0
tp3534
g12
tp3535
Rp3536
(I1
(I1
tp3537
g19
I00
(lp3538
(lp3539
g43
(g30
S'\x01\x00\x00\x00\x00\x00\x00\x00'
p3540
tp3541
Rp3542
aatp3543
bsbsS'improvement'
p3544
g2
(g3
g4
Ntp3545
Rp3546
(dp3547
g8
g9
(g10
(I0
tp3548
g12
tp3549
Rp3550
(I1
(I1
tp3551
g19
I00
(lp3552
(lp3553
I497
aatp3554
bsg25
S'lil'
p3555
sg27
g30
sg33
(I1
I1100
tp3556
sg35
I50
sg36
g9
(g10
(I0
tp3557
g12
tp3558
Rp3559
(I1
(I1
tp3560
g19
I00
(lp3561
(lp3562
g43
(g30
S'\x01\x00\x00\x00\x00\x00\x00\x00'
p3563
tp3564
Rp3565
aatp3566
bsbsS'downcast'
p3567
g2
(g3
g4
Ntp3568
Rp3569
(dp3570
g8
g9
(g10
(I0
tp3571
g12
tp3572
Rp3573
(I1
(I1
tp3574
g19
I00
(lp3575
(lp3576
I298
aatp3577
bsg25
S'lil'
p3578
sg27
g30
sg33
(I1
I1100
tp3579
sg35
I50
sg36
g9
(g10
(I0
tp3580
g12
tp3581
Rp3582
(I1
(I1
tp3583
g19
I00
(lp3584
(lp3585
g43
(g30
S'\x01\x00\x00\x00\x00\x00\x00\x00'
p3586
tp3587
Rp3588
aatp3589
bsbsS'unit'
p3590
g2
(g3
g4
Ntp3591
Rp3592
(dp3593
g8
g9
(g10
(I0
tp3594
g12
tp3595
Rp3596
(I1
(I1
tp3597
g19
I00
(lp3598
(lp3599
I1013
aatp3600
bsg25
S'lil'
p3601
sg27
g30
sg33
(I1
I1100
tp3602
sg35
I50
sg36
g9
(g10
(I0
tp3603
g12
tp3604
Rp3605
(I1
(I1
tp3606
g19
I00
(lp3607
(lp3608
g43
(g30
S'\x01\x00\x00\x00\x00\x00\x00\x00'
p3609
tp3610
Rp3611
aatp3612
bsbsS'gratitude'
p3613
g2
(g3
g4
Ntp3614
Rp3615
(dp3616
g8
g9
(g10
(I0
tp3617
g12
tp3618
Rp3619
(I1
(I1
tp3620
g19
I00
(lp3621
(lp3622
I446
aatp3623
bsg25
S'lil'
p3624
sg27
g30
sg33
(I1
I1100
tp3625
sg35
I50
sg36
g9
(g10
(I0
tp3626
g12
tp3627
Rp3628
(I1
(I1
tp3629
g19
I00
(lp3630
(lp3631
g43
(g30
S'\x01\x00\x00\x00\x00\x00\x00\x00'
p3632
tp3633
Rp3634
aatp3635
bsbsS'thoughtless'
p3636
g2
(g3
g4
Ntp3637
Rp3638
(dp3639
g8
g9
(g10
(I0
tp3640
g12
tp3641
Rp3642
(I1
(I1
tp3643
g19
I00
(lp3644
(lp3645
I962
aatp3646
bsg25
S'lil'
p3647
sg27
g30
sg33
(I1
I1100
tp3648
sg35
I50
sg36
g9
(g10
(I0
tp3649
g12
tp3650
Rp3651
(I1
(I1
tp3652
g19
I00
(lp3653
(lp3654
g43
(g30
S'\x01\x00\x00\x00\x00\x00\x00\x00'
p3655
tp3656
Rp3657
aatp3658
bsbsS'trickery'
p3659
g2
(g3
g4
Ntp3660
Rp3661
(dp3662
g8
g9
(g10
(I0
tp3663
g12
tp3664
Rp3665
(I1
(I1
tp3666
g19
I00
(lp3667
(lp3668
I986
aatp3669
bsg25
S'lil'
p3670
sg27
g30
sg33
(I1
I1100
tp3671
sg35
I50
sg36
g9
(g10
(I0
tp3672
g12
tp3673
Rp3674
(I1
(I1
tp3675
g19
I00
(lp3676
(lp3677
g43
(g30
S'\x01\x00\x00\x00\x00\x00\x00\x00'
p3678
tp3679
Rp3680
aatp3681
bsbsS'elastic'
p3682
g2
(g3
g4
Ntp3683
Rp3684
(dp3685
g8
g9
(g10
(I0
tp3686
g12
tp3687
Rp3688
(I1
(I1
tp3689
g19
I00
(lp3690
(lp3691
I313
aatp3692
bsg25
S'lil'
p3693
sg27
g30
sg33
(I1
I1100
tp3694
sg35
I50
sg36
g9
(g10
(I0
tp3695
g12
tp3696
Rp3697
(I1
(I1
tp3698
g19
I00
(lp3699
(lp3700
g43
(g30
S'\x01\x00\x00\x00\x00\x00\x00\x00'
p3701
tp3702
Rp3703
aatp3704
bsbsS'refrain'
p3705
g2
(g3
g4
Ntp3706
Rp3707
(dp3708
g8
g9
(g10
(I0
tp3709
g12
tp3710
Rp3711
(I1
(I1
tp3712
g19
I00
(lp3713
(lp3714
I776
aatp3715
bsg25
S'lil'
p3716
sg27
g30
sg33
(I1
I1100
tp3717
sg35
I50
sg36
g9
(g10
(I0
tp3718
g12
tp3719
Rp3720
(I1
(I1
tp3721
g19
I00
(lp3722
(lp3723
g43
(g30
S'\x01\x00\x00\x00\x00\x00\x00\x00'
p3724
tp3725
Rp3726
aatp3727
bsbsS'distinct'
p3728
g2
(g3
g4
Ntp3729
Rp3730
(dp3731
g8
g9
(g10
(I0
tp3732
g12
tp3733
Rp3734
(I1
(I1
tp3735
g19
I00
(lp3736
(lp3737
I286
aatp3738
bsg25
S'lil'
p3739
sg27
g30
sg33
(I1
I1100
tp3740
sg35
I50
sg36
g9
(g10
(I0
tp3741
g12
tp3742
Rp3743
(I1
(I1
tp3744
g19
I00
(lp3745
(lp3746
g43
(g30
S'\x01\x00\x00\x00\x00\x00\x00\x00'
p3747
tp3748
Rp3749
aatp3750
bsbsS'unknown'
p3751
g2
(g3
g4
Ntp3752
Rp3753
(dp3754
g8
g9
(g10
(I0
tp3755
g12
tp3756
Rp3757
(I1
(I1
tp3758
g19
I00
(lp3759
(lp3760
I1017
aatp3761
bsg25
S'lil'
p3762
sg27
g30
sg33
(I1
I1100
tp3763
sg35
I50
sg36
g9
(g10
(I0
tp3764
g12
tp3765
Rp3766
(I1
(I1
tp3767
g19
I00
(lp3768
(lp3769
g43
(g30
S'\x01\x00\x00\x00\x00\x00\x00\x00'
p3770
tp3771
Rp3772
aatp3773
bsbsS'continuous'
p3774
g2
(g3
g4
Ntp3775
Rp3776
(dp3777
g8
g9
(g10
(I0
tp3778
g12
tp3779
Rp3780
(I1
(I1
tp3781
g19
I00
(lp3782
(lp3783
I221
aatp3784
bsg25
S'lil'
p3785
sg27
g30
sg33
(I1
I1100
tp3786
sg35
I50
sg36
g9
(g10
(I0
tp3787
g12
tp3788
Rp3789
(I1
(I1
tp3790
g19
I00
(lp3791
(lp3792
g43
(g30
S'\x01\x00\x00\x00\x00\x00\x00\x00'
p3793
tp3794
Rp3795
aatp3796
bsbsS'concede'
p3797
g2
(g3
g4
Ntp3798
Rp3799
(dp3800
g8
g9
(g10
(I0
tp3801
g12
tp3802
Rp3803
(I1
(I1
tp3804
g19
I00
(lp3805
(lp3806
I203
aatp3807
bsg25
S'lil'
p3808
sg27
g30
sg33
(I1
I1100
tp3809
sg35
I50
sg36
g9
(g10
(I0
tp3810
g12
tp3811
Rp3812
(I1
(I1
tp3813
g19
I00
(lp3814
(lp3815
g43
(g30
S'\x01\x00\x00\x00\x00\x00\x00\x00'
p3816
tp3817
Rp3818
aatp3819
bsbsS'irritating'
p3820
g2
(g3
g4
Ntp3821
Rp3822
(dp3823
g8
g9
(g10
(I0
tp3824
g12
tp3825
Rp3826
(I1
(I1
tp3827
g19
I00
(lp3828
(lp3829
I536
aatp3830
bsg25
S'lil'
p3831
sg27
g30
sg33
(I1
I1100
tp3832
sg35
I50
sg36
g9
(g10
(I0
tp3833
g12
tp3834
Rp3835
(I1
(I1
tp3836
g19
I00
(lp3837
(lp3838
g43
(g30
S'\x01\x00\x00\x00\x00\x00\x00\x00'
p3839
tp3840
Rp3841
aatp3842
bsbsS'few'
p3843
g2
(g3
g4
Ntp3844
Rp3845
(dp3846
g8
g9
(g10
(I0
tp3847
g12
tp3848
Rp3849
(I1
(I1
tp3850
g19
I00
(lp3851
(lp3852
I397
aatp3853
bsg25
S'lil'
p3854
sg27
g30
sg33
(I1
I1100
tp3855
sg35
I50
sg36
g9
(g10
(I0
tp3856
g12
tp3857
Rp3858
(I1
(I1
tp3859
g19
I00
(lp3860
(lp3861
g43
(g30
S'\x01\x00\x00\x00\x00\x00\x00\x00'
p3862
tp3863
Rp3864
aatp3865
bsbsS'omnipresent'
p3866
g2
(g3
g4
Ntp3867
Rp3868
(dp3869
g8
g9
(g10
(I0
tp3870
g12
tp3871
Rp3872
(I1
(I1
tp3873
g19
I00
(lp3874
(lp3875
I649
aatp3876
bsg25
S'lil'
p3877
sg27
g30
sg33
(I1
I1100
tp3878
sg35
I50
sg36
g9
(g10
(I0
tp3879
g12
tp3880
Rp3881
(I1
(I1
tp3882
g19
I00
(lp3883
(lp3884
g43
(g30
S'\x01\x00\x00\x00\x00\x00\x00\x00'
p3885
tp3886
Rp3887
aatp3888
bsbsS'extravagant'
p3889
g2
(g3
g4
Ntp3890
Rp3891
(dp3892
g8
g9
(g10
(I0
tp3893
g12
tp3894
Rp3895
(I1
(I1
tp3896
g19
I00
(lp3897
(lp3898
I381
aatp3899
bsg25
S'lil'
p3900
sg27
g30
sg33
(I1
I1100
tp3901
sg35
I50
sg36
g9
(g10
(I0
tp3902
g12
tp3903
Rp3904
(I1
(I1
tp3905
g19
I00
(lp3906
(lp3907
g43
(g30
S'\x01\x00\x00\x00\x00\x00\x00\x00'
p3908
tp3909
Rp3910
aatp3911
bsbsS'futile'
p3912
g2
(g3
g4
Ntp3913
Rp3914
(dp3915
g8
g9
(g10
(I0
tp3916
g12
tp3917
Rp3918
(I1
(I1
tp3919
g19
I00
(lp3920
(lp3921
I426
aatp3922
bsg25
S'lil'
p3923
sg27
g30
sg33
(I1
I1100
tp3924
sg35
I50
sg36
g9
(g10
(I0
tp3925
g12
tp3926
Rp3927
(I1
(I1
tp3928
g19
I00
(lp3929
(lp3930
g43
(g30
S'\x01\x00\x00\x00\x00\x00\x00\x00'
p3931
tp3932
Rp3933
aatp3934
bsbsS'omniscient'
p3935
g2
(g3
g4
Ntp3936
Rp3937
(dp3938
g8
g9
(g10
(I0
tp3939
g12
tp3940
Rp3941
(I1
(I1
tp3942
g19
I00
(lp3943
(lp3944
I650
aatp3945
bsg25
S'lil'
p3946
sg27
g30
sg33
(I1
I1100
tp3947
sg35
I50
sg36
g9
(g10
(I0
tp3948
g12
tp3949
Rp3950
(I1
(I1
tp3951
g19
I00
(lp3952
(lp3953
g43
(g30
S'\x01\x00\x00\x00\x00\x00\x00\x00'
p3954
tp3955
Rp3956
aatp3957
bsbsS'flexible'
p3958
g2
(g3
g4
Ntp3959
Rp3960
(dp3961
g8
g9
(g10
(I0
tp3962
g12
tp3963
Rp3964
(I1
(I1
tp3965
g19
I00
(lp3966
(lp3967
I408
aatp3968
bsg25
S'lil'
p3969
sg27
g30
sg33
(I1
I1100
tp3970
sg35
I50
sg36
g9
(g10
(I0
tp3971
g12
tp3972
Rp3973
(I1
(I1
tp3974
g19
I00
(lp3975
(lp3976
g43
(g30
S'\x01\x00\x00\x00\x00\x00\x00\x00'
p3977
tp3978
Rp3979
aatp3980
bsbsS'improve'
p3981
g2
(g3
g4
Ntp3982
Rp3983
(dp3984
g8
g9
(g10
(I0
tp3985
g12
tp3986
Rp3987
(I1
(I1
tp3988
g19
I00
(lp3989
(lp3990
I496
aatp3991
bsg25
S'lil'
p3992
sg27
g30
sg33
(I1
I1100
tp3993
sg35
I50
sg36
g9
(g10
(I0
tp3994
g12
tp3995
Rp3996
(I1
(I1
tp3997
g19
I00
(lp3998
(lp3999
g43
(g30
S'\x01\x00\x00\x00\x00\x00\x00\x00'
p4000
tp4001
Rp4002
aatp4003
bsbsS'bitter'
p4004
g2
(g3
g4
Ntp4005
Rp4006
(dp4007
g8
g9
(g10
(I0
tp4008
g12
tp4009
Rp4010
(I1
(I1
tp4011
g19
I00
(lp4012
(lp4013
I132
aatp4014
bsg25
S'lil'
p4015
sg27
g30
sg33
(I1
I1100
tp4016
sg35
I50
sg36
g9
(g10
(I0
tp4017
g12
tp4018
Rp4019
(I1
(I1
tp4020
g19
I00
(lp4021
(lp4022
g43
(g30
S'\x01\x00\x00\x00\x00\x00\x00\x00'
p4023
tp4024
Rp4025
aatp4026
bsbsS'combined'
p4027
g2
(g3
g4
Ntp4028
Rp4029
(dp4030
g8
g9
(g10
(I0
tp4031
g12
tp4032
Rp4033
(I1
(I1
tp4034
g19
I00
(lp4035
(lp4036
I189
aatp4037
bsg25
S'lil'
p4038
sg27
g30
sg33
(I1
I1100
tp4039
sg35
I50
sg36
g9
(g10
(I0
tp4040
g12
tp4041
Rp4042
(I1
(I1
tp4043
g19
I00
(lp4044
(lp4045
g43
(g30
S'\x01\x00\x00\x00\x00\x00\x00\x00'
p4046
tp4047
Rp4048
aatp4049
bsbsS'vestibule'
p4050
g2
(g3
g4
Ntp4051
Rp4052
(dp4053
g8
g9
(g10
(I0
tp4054
g12
tp4055
Rp4056
(I1
(I1
tp4057
g19
I00
(lp4058
(lp4059
I1049
aatp4060
bsg25
S'lil'
p4061
sg27
g30
sg33
(I1
I1100
tp4062
sg35
I50
sg36
g9
(g10
(I0
tp4063
g12
tp4064
Rp4065
(I1
(I1
tp4066
g19
I00
(lp4067
(lp4068
g43
(g30
S'\x01\x00\x00\x00\x00\x00\x00\x00'
p4069
tp4070
Rp4071
aatp4072
bsbsS'naive'
p4073
g2
(g3
g4
Ntp4074
Rp4075
(dp4076
g8
g9
(g10
(I0
tp4077
g12
tp4078
Rp4079
(I1
(I1
tp4080
g19
I00
(lp4081
(lp4082
I619
aatp4083
bsg25
S'lil'
p4084
sg27
g30
sg33
(I1
I1100
tp4085
sg35
I50
sg36
g9
(g10
(I0
tp4086
g12
tp4087
Rp4088
(I1
(I1
tp4089
g19
I00
(lp4090
(lp4091
g43
(g30
S'\x01\x00\x00\x00\x00\x00\x00\x00'
p4092
tp4093
Rp4094
aatp4095
bsbsS'capitalizing'
p4096
g2
(g3
g4
Ntp4097
Rp4098
(dp4099
g8
g9
(g10
(I0
tp4100
g12
tp4101
Rp4102
(I1
(I1
tp4103
g19
I00
(lp4104
(lp4105
I155
aatp4106
bsg25
S'lil'
p4107
sg27
g30
sg33
(I1
I1100
tp4108
sg35
I50
sg36
g9
(g10
(I0
tp4109
g12
tp4110
Rp4111
(I1
(I1
tp4112
g19
I00
(lp4113
(lp4114
g43
(g30
S'\x01\x00\x00\x00\x00\x00\x00\x00'
p4115
tp4116
Rp4117
aatp4118
bsbsS'pondering'
p4119
g2
(g3
g4
Ntp4120
Rp4121
(dp4122
g8
g9
(g10
(I0
tp4123
g12
tp4124
Rp4125
(I1
(I1
tp4126
g19
I00
(lp4127
(lp4128
I702
aatp4129
bsg25
S'lil'
p4130
sg27
g30
sg33
(I1
I1100
tp4131
sg35
I50
sg36
g9
(g10
(I0
tp4132
g12
tp4133
Rp4134
(I1
(I1
tp4135
g19
I00
(lp4136
(lp4137
g43
(g30
S'\x01\x00\x00\x00\x00\x00\x00\x00'
p4138
tp4139
Rp4140
aatp4141
bsbsS'inexpressible'
p4142
g2
(g3
g4
Ntp4143
Rp4144
(dp4145
g8
g9
(g10
(I0
tp4146
g12
tp4147
Rp4148
(I1
(I1
tp4149
g19
I00
(lp4150
(lp4151
I514
aatp4152
bsg25
S'lil'
p4153
sg27
g30
sg33
(I1
I1100
tp4154
sg35
I50
sg36
g9
(g10
(I0
tp4155
g12
tp4156
Rp4157
(I1
(I1
tp4158
g19
I00
(lp4159
(lp4160
g43
(g30
S'\x01\x00\x00\x00\x00\x00\x00\x00'
p4161
tp4162
Rp4163
aatp4164
bsbsS'trailblazer'
p4165
g2
(g3
g4
Ntp4166
Rp4167
(dp4168
g8
g9
(g10
(I0
tp4169
g12
tp4170
Rp4171
(I1
(I1
tp4172
g19
I00
(lp4173
(lp4174
I975
aatp4175
bsg25
S'lil'
p4176
sg27
g30
sg33
(I1
I1100
tp4177
sg35
I50
sg36
g9
(g10
(I0
tp4178
g12
tp4179
Rp4180
(I1
(I1
tp4181
g19
I00
(lp4182
(lp4183
g43
(g30
S'\x01\x00\x00\x00\x00\x00\x00\x00'
p4184
tp4185
Rp4186
aatp4187
bsbsS'neutral'
p4188
g2
(g3
g4
Ntp4189
Rp4190
(dp4191
g8
g9
(g10
(I0
tp4192
g12
tp4193
Rp4194
(I1
(I1
tp4195
g19
I00
(lp4196
(lp4197
I626
aatp4198
bsg25
S'lil'
p4199
sg27
g30
sg33
(I1
I1100
tp4200
sg35
I50
sg36
g9
(g10
(I0
tp4201
g12
tp4202
Rp4203
(I1
(I1
tp4204
g19
I00
(lp4205
(lp4206
g43
(g30
S'\x01\x00\x00\x00\x00\x00\x00\x00'
p4207
tp4208
Rp4209
aatp4210
bsbsS'transient'
p4211
g2
(g3
g4
Ntp4212
Rp4213
(dp4214
g8
g9
(g10
(I0
tp4215
g12
tp4216
Rp4217
(I1
(I1
tp4218
g19
I00
(lp4219
(lp4220
I979
aatp4221
bsg25
S'lil'
p4222
sg27
g30
sg33
(I1
I1100
tp4223
sg35
I50
sg36
g9
(g10
(I0
tp4224
g12
tp4225
Rp4226
(I1
(I1
tp4227
g19
I00
(lp4228
(lp4229
g43
(g30
S'\x01\x00\x00\x00\x00\x00\x00\x00'
p4230
tp4231
Rp4232
aatp4233
bsbsS'ignorant'
p4234
g2
(g3
g4
Ntp4235
Rp4236
(dp4237
g8
g9
(g10
(I0
tp4238
g12
tp4239
Rp4240
(I1
(I1
tp4241
g19
I00
(lp4242
(lp4243
I487
aatp4244
bsg25
S'lil'
p4245
sg27
g30
sg33
(I1
I1100
tp4246
sg35
I50
sg36
g9
(g10
(I0
tp4247
g12
tp4248
Rp4249
(I1
(I1
tp4250
g19
I00
(lp4251
(lp4252
g43
(g30
S'\x01\x00\x00\x00\x00\x00\x00\x00'
p4253
tp4254
Rp4255
aatp4256
bsbsS'stoic'
p4257
g2
(g3
g4
Ntp4258
Rp4259
(dp4260
g8
g9
(g10
(I0
tp4261
g12
tp4262
Rp4263
(I1
(I1
tp4264
g19
I00
(lp4265
(lp4266
I901
aatp4267
bsg25
S'lil'
p4268
sg27
g30
sg33
(I1
I1100
tp4269
sg35
I50
sg36
g9
(g10
(I0
tp4270
g12
tp4271
Rp4272
(I1
(I1
tp4273
g19
I00
(lp4274
(lp4275
g43
(g30
S'\x01\x00\x00\x00\x00\x00\x00\x00'
p4276
tp4277
Rp4278
aatp4279
bsbsS'eternally'
p4280
g2
(g3
g4
Ntp4281
Rp4282
(dp4283
g8
g9
(g10
(I0
tp4284
g12
tp4285
Rp4286
(I1
(I1
tp4287
g19
I00
(lp4288
(lp4289
I352
aatp4290
bsg25
S'lil'
p4291
sg27
g30
sg33
(I1
I1100
tp4292
sg35
I50
sg36
g9
(g10
(I0
tp4293
g12
tp4294
Rp4295
(I1
(I1
tp4296
g19
I00
(lp4297
(lp4298
g43
(g30
S'\x01\x00\x00\x00\x00\x00\x00\x00'
p4299
tp4300
Rp4301
aatp4302
bsbsS'gorgeous'
p4303
g2
(g3
g4
Ntp4304
Rp4305
(dp4306
g8
g9
(g10
(I0
tp4307
g12
tp4308
Rp4309
(I1
(I1
tp4310
g19
I00
(lp4311
(lp4312
I442
aatp4313
bsg25
S'lil'
p4314
sg27
g30
sg33
(I1
I1100
tp4315
sg35
I50
sg36
g9
(g10
(I0
tp4316
g12
tp4317
Rp4318
(I1
(I1
tp4319
g19
I00
(lp4320
(lp4321
g43
(g30
S'\x01\x00\x00\x00\x00\x00\x00\x00'
p4322
tp4323
Rp4324
aatp4325
bsbsS'inattentive'
p4326
g2
(g3
g4
Ntp4327
Rp4328
(dp4329
g8
g9
(g10
(I0
tp4330
g12
tp4331
Rp4332
(I1
(I1
tp4333
g19
I00
(lp4334
(lp4335
I501
aatp4336
bsg25
S'lil'
p4337
sg27
g30
sg33
(I1
I1100
tp4338
sg35
I50
sg36
g9
(g10
(I0
tp4339
g12
tp4340
Rp4341
(I1
(I1
tp4342
g19
I00
(lp4343
(lp4344
g43
(g30
S'\x01\x00\x00\x00\x00\x00\x00\x00'
p4345
tp4346
Rp4347
aatp4348
bsbsS'repetition'
p4349
g2
(g3
g4
Ntp4350
Rp4351
(dp4352
g8
g9
(g10
(I0
tp4353
g12
tp4354
Rp4355
(I1
(I1
tp4356
g19
I00
(lp4357
(lp4358
I787
aatp4359
bsg25
S'lil'
p4360
sg27
g30
sg33
(I1
I1100
tp4361
sg35
I50
sg36
g9
(g10
(I0
tp4362
g12
tp4363
Rp4364
(I1
(I1
tp4365
g19
I00
(lp4366
(lp4367
g43
(g30
S'\x01\x00\x00\x00\x00\x00\x00\x00'
p4368
tp4369
Rp4370
aatp4371
bsbsS'scribble'
p4372
g2
(g3
g4
Ntp4373
Rp4374
(dp4375
g8
g9
(g10
(I0
tp4376
g12
tp4377
Rp4378
(I1
(I1
tp4379
g19
I00
(lp4380
(lp4381
I825
aatp4382
bsg25
S'lil'
p4383
sg27
g30
sg33
(I1
I1100
tp4384
sg35
I50
sg36
g9
(g10
(I0
tp4385
g12
tp4386
Rp4387
(I1
(I1
tp4388
g19
I00
(lp4389
(lp4390
g43
(g30
S'\x01\x00\x00\x00\x00\x00\x00\x00'
p4391
tp4392
Rp4393
aatp4394
bsbsS'emancipate'
p4395
g2
(g3
g4
Ntp4396
Rp4397
(dp4398
g8
g9
(g10
(I0
tp4399
g12
tp4400
Rp4401
(I1
(I1
tp4402
g19
I00
(lp4403
(lp4404
I321
aatp4405
bsg25
S'lil'
p4406
sg27
g30
sg33
(I1
I1100
tp4407
sg35
I50
sg36
g9
(g10
(I0
tp4408
g12
tp4409
Rp4410
(I1
(I1
tp4411
g19
I00
(lp4412
(lp4413
g43
(g30
S'\x01\x00\x00\x00\x00\x00\x00\x00'
p4414
tp4415
Rp4416
aatp4417
bsbsS'characteristic'
p4418
g2
(g3
g4
Ntp4419
Rp4420
(dp4421
g8
g9
(g10
(I0
tp4422
g12
tp4423
Rp4424
(I1
(I1
tp4425
g19
I00
(lp4426
(lp4427
I173
aatp4428
bsg25
S'lil'
p4429
sg27
g30
sg33
(I1
I1100
tp4430
sg35
I50
sg36
g9
(g10
(I0
tp4431
g12
tp4432
Rp4433
(I1
(I1
tp4434
g19
I00
(lp4435
(lp4436
g43
(g30
S'\x01\x00\x00\x00\x00\x00\x00\x00'
p4437
tp4438
Rp4439
aatp4440
bsbsS'anticipate'
p4441
g2
(g3
g4
Ntp4442
Rp4443
(dp4444
g8
g9
(g10
(I0
tp4445
g12
tp4446
Rp4447
(I1
(I1
tp4448
g19
I00
(lp4449
(lp4450
I62
aatp4451
bsg25
S'lil'
p4452
sg27
g30
sg33
(I1
I1100
tp4453
sg35
I50
sg36
g9
(g10
(I0
tp4454
g12
tp4455
Rp4456
(I1
(I1
tp4457
g19
I00
(lp4458
(lp4459
g43
(g30
S'\x01\x00\x00\x00\x00\x00\x00\x00'
p4460
tp4461
Rp4462
aatp4463
bsbsS'unreasonable'
p4464
g2
(g3
g4
Ntp4465
Rp4466
(dp4467
g8
g9
(g10
(I0
tp4468
g12
tp4469
Rp4470
(I1
(I1
tp4471
g19
I00
(lp4472
(lp4473
I1022
aatp4474
bsg25
S'lil'
p4475
sg27
g30
sg33
(I1
I1100
tp4476
sg35
I50
sg36
g9
(g10
(I0
tp4477
g12
tp4478
Rp4479
(I1
(I1
tp4480
g19
I00
(lp4481
(lp4482
g43
(g30
S'\x01\x00\x00\x00\x00\x00\x00\x00'
p4483
tp4484
Rp4485
aatp4486
bsbsS'helicopter'
p4487
g2
(g3
g4
Ntp4488
Rp4489
(dp4490
g8
g9
(g10
(I0
tp4491
g12
tp4492
Rp4493
(I1
(I1
tp4494
g19
I00
(lp4495
(lp4496
I463
aatp4497
bsg25
S'lil'
p4498
sg27
g30
sg33
(I1
I1100
tp4499
sg35
I50
sg36
g9
(g10
(I0
tp4500
g12
tp4501
Rp4502
(I1
(I1
tp4503
g19
I00
(lp4504
(lp4505
g43
(g30
S'\x01\x00\x00\x00\x00\x00\x00\x00'
p4506
tp4507
Rp4508
aatp4509
bsbsS'vivacious'
p4510
g2
(g3
g4
Ntp4511
Rp4512
(dp4513
g8
g9
(g10
(I0
tp4514
g12
tp4515
Rp4516
(I1
(I1
tp4517
g19
I00
(lp4518
(lp4519
I1056
aatp4520
bsg25
S'lil'
p4521
sg27
g30
sg33
(I1
I1100
tp4522
sg35
I50
sg36
g9
(g10
(I0
tp4523
g12
tp4524
Rp4525
(I1
(I1
tp4526
g19
I00
(lp4527
(lp4528
g43
(g30
S'\x01\x00\x00\x00\x00\x00\x00\x00'
p4529
tp4530
Rp4531
aatp4532
bsbsS'undecorated'
p4533
g2
(g3
g4
Ntp4534
Rp4535
(dp4536
g8
g9
(g10
(I0
tp4537
g12
tp4538
Rp4539
(I1
(I1
tp4540
g19
I00
(lp4541
(lp4542
I1001
aatp4543
bsg25
S'lil'
p4544
sg27
g30
sg33
(I1
I1100
tp4545
sg35
I50
sg36
g9
(g10
(I0
tp4546
g12
tp4547
Rp4548
(I1
(I1
tp4549
g19
I00
(lp4550
(lp4551
g43
(g30
S'\x01\x00\x00\x00\x00\x00\x00\x00'
p4552
tp4553
Rp4554
aatp4555
bsbsS'stunning'
p4556
g2
(g3
g4
Ntp4557
Rp4558
(dp4559
g8
g9
(g10
(I0
tp4560
g12
tp4561
Rp4562
(I1
(I1
tp4563
g19
I00
(lp4564
(lp4565
I910
aatp4566
bsg25
S'lil'
p4567
sg27
g30
sg33
(I1
I1100
tp4568
sg35
I50
sg36
g9
(g10
(I0
tp4569
g12
tp4570
Rp4571
(I1
(I1
tp4572
g19
I00
(lp4573
(lp4574
g43
(g30
S'\x01\x00\x00\x00\x00\x00\x00\x00'
p4575
tp4576
Rp4577
aatp4578
bsbsS'unanimous'
p4579
g2
(g3
g4
Ntp4580
Rp4581
(dp4582
g8
g9
(g10
(I0
tp4583
g12
tp4584
Rp4585
(I1
(I1
tp4586
g19
I00
(lp4587
(lp4588
I996
aatp4589
bsg25
S'lil'
p4590
sg27
g30
sg33
(I1
I1100
tp4591
sg35
I50
sg36
g9
(g10
(I0
tp4592
g12
tp4593
Rp4594
(I1
(I1
tp4595
g19
I00
(lp4596
(lp4597
g43
(g30
S'\x01\x00\x00\x00\x00\x00\x00\x00'
p4598
tp4599
Rp4600
aatp4601
bsbsS'critical'
p4602
g2
(g3
g4
Ntp4603
Rp4604
(dp4605
g8
g9
(g10
(I0
tp4606
g12
tp4607
Rp4608
(I1
(I1
tp4609
g19
I00
(lp4610
(lp4611
I237
aatp4612
bsg25
S'lil'
p4613
sg27
g30
sg33
(I1
I1100
tp4614
sg35
I50
sg36
g9
(g10
(I0
tp4615
g12
tp4616
Rp4617
(I1
(I1
tp4618
g19
I00
(lp4619
(lp4620
g43
(g30
S'\x01\x00\x00\x00\x00\x00\x00\x00'
p4621
tp4622
Rp4623
aatp4624
bsbsS'dazed'
p4625
g2
(g3
g4
Ntp4626
Rp4627
(dp4628
g8
g9
(g10
(I0
tp4629
g12
tp4630
Rp4631
(I1
(I1
tp4632
g19
I00
(lp4633
(lp4634
I248
aatp4635
bsg25
S'lil'
p4636
sg27
g30
sg33
(I1
I1100
tp4637
sg35
I50
sg36
g9
(g10
(I0
tp4638
g12
tp4639
Rp4640
(I1
(I1
tp4641
g19
I00
(lp4642
(lp4643
g43
(g30
S'\x01\x00\x00\x00\x00\x00\x00\x00'
p4644
tp4645
Rp4646
aatp4647
bsbsS'calm'
p4648
g2
(g3
g4
Ntp4649
Rp4650
(dp4651
g8
g9
(g10
(I0
tp4652
g12
tp4653
Rp4654
(I1
(I1
tp4655
g19
I00
(lp4656
(lp4657
I150
aatp4658
bsg25
S'lil'
p4659
sg27
g30
sg33
(I1
I1100
tp4660
sg35
I50
sg36
g9
(g10
(I0
tp4661
g12
tp4662
Rp4663
(I1
(I1
tp4664
g19
I00
(lp4665
(lp4666
g43
(g30
S'\x01\x00\x00\x00\x00\x00\x00\x00'
p4667
tp4668
Rp4669
aatp4670
bsbsS'wicked'
p4671
g2
(g3
g4
Ntp4672
Rp4673
(dp4674
g8
g9
(g10
(I0
tp4675
g12
tp4676
Rp4677
(I1
(I1
tp4678
g19
I00
(lp4679
(lp4680
I1073
aatp4681
bsg25
S'lil'
p4682
sg27
g30
sg33
(I1
I1100
tp4683
sg35
I50
sg36
g9
(g10
(I0
tp4684
g12
tp4685
Rp4686
(I1
(I1
tp4687
g19
I00
(lp4688
(lp4689
g43
(g30
S'\x01\x00\x00\x00\x00\x00\x00\x00'
p4690
tp4691
Rp4692
aatp4693
bsbsS'agree'
p4694
g2
(g3
g4
Ntp4695
Rp4696
(dp4697
g8
g9
(g10
(I0
tp4698
g12
tp4699
Rp4700
(I1
(I1
tp4701
g19
I00
(lp4702
(lp4703
I39
aatp4704
bsg25
S'lil'
p4705
sg27
g30
sg33
(I1
I1100
tp4706
sg35
I50
sg36
g9
(g10
(I0
tp4707
g12
tp4708
Rp4709
(I1
(I1
tp4710
g19
I00
(lp4711
(lp4712
g43
(g30
S'\x01\x00\x00\x00\x00\x00\x00\x00'
p4713
tp4714
Rp4715
aatp4716
bsbsS'affection'
p4717
g2
(g3
g4
Ntp4718
Rp4719
(dp4720
g8
g9
(g10
(I0
tp4721
g12
tp4722
Rp4723
(I1
(I1
tp4724
g19
I00
(lp4725
(lp4726
I33
aatp4727
bsg25
S'lil'
p4728
sg27
g30
sg33
(I1
I1100
tp4729
sg35
I50
sg36
g9
(g10
(I0
tp4730
g12
tp4731
Rp4732
(I1
(I1
tp4733
g19
I00
(lp4734
(lp4735
g43
(g30
S'\x01\x00\x00\x00\x00\x00\x00\x00'
p4736
tp4737
Rp4738
aatp4739
bsbsS'beautiful'
p4740
g2
(g3
g4
Ntp4741
Rp4742
(dp4743
g8
g9
(g10
(I0
tp4744
g12
tp4745
Rp4746
(I1
(I1
tp4747
g19
I00
(lp4748
(lp4749
I116
aatp4750
bsg25
S'lil'
p4751
sg27
g30
sg33
(I1
I1100
tp4752
sg35
I50
sg36
g9
(g10
(I0
tp4753
g12
tp4754
Rp4755
(I1
(I1
tp4756
g19
I00
(lp4757
(lp4758
g43
(g30
S'\x01\x00\x00\x00\x00\x00\x00\x00'
p4759
tp4760
Rp4761
aatp4762
bsbsS'bittersweet'
p4763
g2
(g3
g4
Ntp4764
Rp4765
(dp4766
g8
g9
(g10
(I0
tp4767
g12
tp4768
Rp4769
(I1
(I1
tp4770
g19
I00
(lp4771
(lp4772
I133
aatp4773
bsg25
S'lil'
p4774
sg27
g30
sg33
(I1
I1100
tp4775
sg35
I50
sg36
g9
(g10
(I0
tp4776
g12
tp4777
Rp4778
(I1
(I1
tp4779
g19
I00
(lp4780
(lp4781
g43
(g30
S'\x01\x00\x00\x00\x00\x00\x00\x00'
p4782
tp4783
Rp4784
aatp4785
bsbsS'apathy'
p4786
g2
(g3
g4
Ntp4787
Rp4788
(dp4789
g8
g9
(g10
(I0
tp4790
g12
tp4791
Rp4792
(I1
(I1
tp4793
g19
I00
(lp4794
(lp4795
I67
aatp4796
bsg25
S'lil'
p4797
sg27
g30
sg33
(I1
I1100
tp4798
sg35
I50
sg36
g9
(g10
(I0
tp4799
g12
tp4800
Rp4801
(I1
(I1
tp4802
g19
I00
(lp4803
(lp4804
g43
(g30
S'\x01\x00\x00\x00\x00\x00\x00\x00'
p4805
tp4806
Rp4807
aatp4808
bsbsS'reserved'
p4809
g2
(g3
g4
Ntp4810
Rp4811
(dp4812
g8
g9
(g10
(I0
tp4813
g12
tp4814
Rp4815
(I1
(I1
tp4816
g19
I00
(lp4817
(lp4818
I794
aatp4819
bsg25
S'lil'
p4820
sg27
g30
sg33
(I1
I1100
tp4821
sg35
I50
sg36
g9
(g10
(I0
tp4822
g12
tp4823
Rp4824
(I1
(I1
tp4825
g19
I00
(lp4826
(lp4827
g43
(g30
S'\x01\x00\x00\x00\x00\x00\x00\x00'
p4828
tp4829
Rp4830
aatp4831
bsbsS'provocative'
p4832
g2
(g3
g4
Ntp4833
Rp4834
(dp4835
g8
g9
(g10
(I0
tp4836
g12
tp4837
Rp4838
(I1
(I1
tp4839
g19
I00
(lp4840
(lp4841
I736
aatp4842
bsg25
S'lil'
p4843
sg27
g30
sg33
(I1
I1100
tp4844
sg35
I50
sg36
g9
(g10
(I0
tp4845
g12
tp4846
Rp4847
(I1
(I1
tp4848
g19
I00
(lp4849
(lp4850
g43
(g30
S'\x01\x00\x00\x00\x00\x00\x00\x00'
p4851
tp4852
Rp4853
aatp4854
bsbsS'grace'
p4855
g2
(g3
g4
Ntp4856
Rp4857
(dp4858
g8
g9
(g10
(I0
tp4859
g12
tp4860
Rp4861
(I1
(I1
tp4862
g19
I00
(lp4863
(lp4864
I443
aatp4865
bsg25
S'lil'
p4866
sg27
g30
sg33
(I1
I1100
tp4867
sg35
I50
sg36
g9
(g10
(I0
tp4868
g12
tp4869
Rp4870
(I1
(I1
tp4871
g19
I00
(lp4872
(lp4873
g43
(g30
S'\x01\x00\x00\x00\x00\x00\x00\x00'
p4874
tp4875
Rp4876
aatp4877
bsbsS'century'
p4878
g2
(g3
g4
Ntp4879
Rp4880
(dp4881
g8
g9
(g10
(I0
tp4882
g12
tp4883
Rp4884
(I1
(I1
tp4885
g19
I00
(lp4886
(lp4887
I168
aatp4888
bsg25
S'lil'
p4889
sg27
g30
sg33
(I1
I1100
tp4890
sg35
I50
sg36
g9
(g10
(I0
tp4891
g12
tp4892
Rp4893
(I1
(I1
tp4894
g19
I00
(lp4895
(lp4896
g43
(g30
S'\x01\x00\x00\x00\x00\x00\x00\x00'
p4897
tp4898
Rp4899
aatp4900
bsbsS'honorable'
p4901
g2
(g3
g4
Ntp4902
Rp4903
(dp4904
g8
g9
(g10
(I0
tp4905
g12
tp4906
Rp4907
(I1
(I1
tp4908
g19
I00
(lp4909
(lp4910
I473
aatp4911
bsg25
S'lil'
p4912
sg27
g30
sg33
(I1
I1100
tp4913
sg35
I50
sg36
g9
(g10
(I0
tp4914
g12
tp4915
Rp4916
(I1
(I1
tp4917
g19
I00
(lp4918
(lp4919
g43
(g30
S'\x01\x00\x00\x00\x00\x00\x00\x00'
p4920
tp4921
Rp4922
aatp4923
bsbsS'unintelligent'
p4924
g2
(g3
g4
Ntp4925
Rp4926
(dp4927
g8
g9
(g10
(I0
tp4928
g12
tp4929
Rp4930
(I1
(I1
tp4931
g19
I00
(lp4932
(lp4933
I1010
aatp4934
bsg25
S'lil'
p4935
sg27
g30
sg33
(I1
I1100
tp4936
sg35
I50
sg36
g9
(g10
(I0
tp4937
g12
tp4938
Rp4939
(I1
(I1
tp4940
g19
I00
(lp4941
(lp4942
g43
(g30
S'\x01\x00\x00\x00\x00\x00\x00\x00'
p4943
tp4944
Rp4945
aatp4946
bsbsS'posthumous'
p4947
g2
(g3
g4
Ntp4948
Rp4949
(dp4950
g8
g9
(g10
(I0
tp4951
g12
tp4952
Rp4953
(I1
(I1
tp4954
g19
I00
(lp4955
(lp4956
I711
aatp4957
bsg25
S'lil'
p4958
sg27
g30
sg33
(I1
I1100
tp4959
sg35
I50
sg36
g9
(g10
(I0
tp4960
g12
tp4961
Rp4962
(I1
(I1
tp4963
g19
I00
(lp4964
(lp4965
g43
(g30
S'\x01\x00\x00\x00\x00\x00\x00\x00'
p4966
tp4967
Rp4968
aatp4969
bsbsS'crumble'
p4970
g2
(g3
g4
Ntp4971
Rp4972
(dp4973
g8
g9
(g10
(I0
tp4974
g12
tp4975
Rp4976
(I1
(I1
tp4977
g19
I00
(lp4978
(lp4979
I241
aatp4980
bsg25
S'lil'
p4981
sg27
g30
sg33
(I1
I1100
tp4982
sg35
I50
sg36
g9
(g10
(I0
tp4983
g12
tp4984
Rp4985
(I1
(I1
tp4986
g19
I00
(lp4987
(lp4988
g43
(g30
S'\x01\x00\x00\x00\x00\x00\x00\x00'
p4989
tp4990
Rp4991
aatp4992
bsbsS'condescend'
p4993
g2
(g3
g4
Ntp4994
Rp4995
(dp4996
g8
g9
(g10
(I0
tp4997
g12
tp4998
Rp4999
(I1
(I1
tp5000
g19
I00
(lp5001
(lp5002
I208
aatp5003
bsg25
S'lil'
p5004
sg27
g30
sg33
(I1
I1100
tp5005
sg35
I50
sg36
g9
(g10
(I0
tp5006
g12
tp5007
Rp5008
(I1
(I1
tp5009
g19
I00
(lp5010
(lp5011
g43
(g30
S'\x01\x00\x00\x00\x00\x00\x00\x00'
p5012
tp5013
Rp5014
aatp5015
bsbsS'purity'
p5016
g2
(g3
g4
Ntp5017
Rp5018
(dp5019
g8
g9
(g10
(I0
tp5020
g12
tp5021
Rp5022
(I1
(I1
tp5023
g19
I00
(lp5024
(lp5025
I742
aatp5026
bsg25
S'lil'
p5027
sg27
g30
sg33
(I1
I1100
tp5028
sg35
I50
sg36
g9
(g10
(I0
tp5029
g12
tp5030
Rp5031
(I1
(I1
tp5032
g19
I00
(lp5033
(lp5034
g43
(g30
S'\x01\x00\x00\x00\x00\x00\x00\x00'
p5035
tp5036
Rp5037
aatp5038
bsbsS'sharp'
p5039
g2
(g3
g4
Ntp5040
Rp5041
(dp5042
g8
g9
(g10
(I0
tp5043
g12
tp5044
Rp5045
(I1
(I1
tp5046
g19
I00
(lp5047
(lp5048
I841
aatp5049
bsg25
S'lil'
p5050
sg27
g30
sg33
(I1
I1100
tp5051
sg35
I50
sg36
g9
(g10
(I0
tp5052
g12
tp5053
Rp5054
(I1
(I1
tp5055
g19
I00
(lp5056
(lp5057
g43
(g30
S'\x01\x00\x00\x00\x00\x00\x00\x00'
p5058
tp5059
Rp5060
aatp5061
bsbsS'wonderful'
p5062
g2
(g3
g4
Ntp5063
Rp5064
(dp5065
g8
g9
(g10
(I0
tp5066
g12
tp5067
Rp5068
(I1
(I1
tp5069
g19
I00
(lp5070
(lp5071
I1083
aatp5072
bsg25
S'lil'
p5073
sg27
g30
sg33
(I1
I1100
tp5074
sg35
I50
sg36
g9
(g10
(I0
tp5075
g12
tp5076
Rp5077
(I1
(I1
tp5078
g19
I00
(lp5079
(lp5080
g43
(g30
S'\x01\x00\x00\x00\x00\x00\x00\x00'
p5081
tp5082
Rp5083
aatp5084
bsbsS'mediocre'
p5085
g2
(g3
g4
Ntp5086
Rp5087
(dp5088
g8
g9
(g10
(I0
tp5089
g12
tp5090
Rp5091
(I1
(I1
tp5092
g19
I00
(lp5093
(lp5094
I596
aatp5095
bsg25
S'lil'
p5096
sg27
g30
sg33
(I1
I1100
tp5097
sg35
I50
sg36
g9
(g10
(I0
tp5098
g12
tp5099
Rp5100
(I1
(I1
tp5101
g19
I00
(lp5102
(lp5103
g43
(g30
S'\x01\x00\x00\x00\x00\x00\x00\x00'
p5104
tp5105
Rp5106
aatp5107
bsbsS'technology'
p5108
g2
(g3
g4
Ntp5109
Rp5110
(dp5111
g8
g9
(g10
(I0
tp5112
g12
tp5113
Rp5114
(I1
(I1
tp5115
g19
I00
(lp5116
(lp5117
I939
aatp5118
bsg25
S'lil'
p5119
sg27
g30
sg33
(I1
I1100
tp5120
sg35
I50
sg36
g9
(g10
(I0
tp5121
g12
tp5122
Rp5123
(I1
(I1
tp5124
g19
I00
(lp5125
(lp5126
g43
(g30
S'\x01\x00\x00\x00\x00\x00\x00\x00'
p5127
tp5128
Rp5129
aatp5130
bsbsS'counterfeit'
p5131
g2
(g3
g4
Ntp5132
Rp5133
(dp5134
g8
g9
(g10
(I0
tp5135
g12
tp5136
Rp5137
(I1
(I1
tp5138
g19
I00
(lp5139
(lp5140
I231
aatp5141
bsg25
S'lil'
p5142
sg27
g30
sg33
(I1
I1100
tp5143
sg35
I50
sg36
g9
(g10
(I0
tp5144
g12
tp5145
Rp5146
(I1
(I1
tp5147
g19
I00
(lp5148
(lp5149
g43
(g30
S'\x01\x00\x00\x00\x00\x00\x00\x00'
p5150
tp5151
Rp5152
aatp5153
bsbsS'gone'
p5154
g2
(g3
g4
Ntp5155
Rp5156
(dp5157
g8
g9
(g10
(I0
tp5158
g12
tp5159
Rp5160
(I1
(I1
tp5161
g19
I00
(lp5162
(lp5163
I440
aatp5164
bsg25
S'lil'
p5165
sg27
g30
sg33
(I1
I1100
tp5166
sg35
I50
sg36
g9
(g10
(I0
tp5167
g12
tp5168
Rp5169
(I1
(I1
tp5170
g19
I00
(lp5171
(lp5172
g43
(g30
S'\x01\x00\x00\x00\x00\x00\x00\x00'
p5173
tp5174
Rp5175
aatp5176
bsbsS'selfish'
p5177
g2
(g3
g4
Ntp5178
Rp5179
(dp5180
g8
g9
(g10
(I0
tp5181
g12
tp5182
Rp5183
(I1
(I1
tp5184
g19
I00
(lp5185
(lp5186
I830
aatp5187
bsg25
S'lil'
p5188
sg27
g30
sg33
(I1
I1100
tp5189
sg35
I50
sg36
g9
(g10
(I0
tp5190
g12
tp5191
Rp5192
(I1
(I1
tp5193
g19
I00
(lp5194
(lp5195
g43
(g30
S'\x01\x00\x00\x00\x00\x00\x00\x00'
p5196
tp5197
Rp5198
aatp5199
bsbsS'unintelligible'
p5200
g2
(g3
g4
Ntp5201
Rp5202
(dp5203
g8
g9
(g10
(I0
tp5204
g12
tp5205
Rp5206
(I1
(I1
tp5207
g19
I00
(lp5208
(lp5209
I1011
aatp5210
bsg25
S'lil'
p5211
sg27
g30
sg33
(I1
I1100
tp5212
sg35
I50
sg36
g9
(g10
(I0
tp5213
g12
tp5214
Rp5215
(I1
(I1
tp5216
g19
I00
(lp5217
(lp5218
g43
(g30
S'\x01\x00\x00\x00\x00\x00\x00\x00'
p5219
tp5220
Rp5221
aatp5222
bsbsS'genuine'
p5223
g2
(g3
g4
Ntp5224
Rp5225
(dp5226
g8
g9
(g10
(I0
tp5227
g12
tp5228
Rp5229
(I1
(I1
tp5230
g19
I00
(lp5231
(lp5232
I430
aatp5233
bsg25
S'lil'
p5234
sg27
g30
sg33
(I1
I1100
tp5235
sg35
I50
sg36
g9
(g10
(I0
tp5236
g12
tp5237
Rp5238
(I1
(I1
tp5239
g19
I00
(lp5240
(lp5241
g43
(g30
S'\x01\x00\x00\x00\x00\x00\x00\x00'
p5242
tp5243
Rp5244
aatp5245
bsbsS'apparent'
p5246
g2
(g3
g4
Ntp5247
Rp5248
(dp5249
g8
g9
(g10
(I0
tp5250
g12
tp5251
Rp5252
(I1
(I1
tp5253
g19
I00
(lp5254
(lp5255
I68
aatp5256
bsg25
S'lil'
p5257
sg27
g30
sg33
(I1
I1100
tp5258
sg35
I50
sg36
g9
(g10
(I0
tp5259
g12
tp5260
Rp5261
(I1
(I1
tp5262
g19
I00
(lp5263
(lp5264
g43
(g30
S'\x01\x00\x00\x00\x00\x00\x00\x00'
p5265
tp5266
Rp5267
aatp5268
bsbsS'teachable'
p5269
g2
(g3
g4
Ntp5270
Rp5271
(dp5272
g8
g9
(g10
(I0
tp5273
g12
tp5274
Rp5275
(I1
(I1
tp5276
g19
I00
(lp5277
(lp5278
I938
aatp5279
bsg25
S'lil'
p5280
sg27
g30
sg33
(I1
I1100
tp5281
sg35
I50
sg36
g9
(g10
(I0
tp5282
g12
tp5283
Rp5284
(I1
(I1
tp5285
g19
I00
(lp5286
(lp5287
g43
(g30
S'\x01\x00\x00\x00\x00\x00\x00\x00'
p5288
tp5289
Rp5290
aatp5291
bsbsS'variety'
p5292
g2
(g3
g4
Ntp5293
Rp5294
(dp5295
g8
g9
(g10
(I0
tp5296
g12
tp5297
Rp5298
(I1
(I1
tp5299
g19
I00
(lp5300
(lp5301
I1039
aatp5302
bsg25
S'lil'
p5303
sg27
g30
sg33
(I1
I1100
tp5304
sg35
I50
sg36
g9
(g10
(I0
tp5305
g12
tp5306
Rp5307
(I1
(I1
tp5308
g19
I00
(lp5309
(lp5310
g43
(g30
S'\x01\x00\x00\x00\x00\x00\x00\x00'
p5311
tp5312
Rp5313
aatp5314
bsbsS'large'
p5315
g2
(g3
g4
Ntp5316
Rp5317
(dp5318
g8
g9
(g10
(I0
tp5319
g12
tp5320
Rp5321
(I1
(I1
tp5322
g19
I00
(lp5323
(lp5324
I549
aatp5325
bsg25
S'lil'
p5326
sg27
g30
sg33
(I1
I1100
tp5327
sg35
I50
sg36
g9
(g10
(I0
tp5328
g12
tp5329
Rp5330
(I1
(I1
tp5331
g19
I00
(lp5332
(lp5333
g43
(g30
S'\x01\x00\x00\x00\x00\x00\x00\x00'
p5334
tp5335
Rp5336
aatp5337
bsbsS'divided'
p5338
g2
(g3
g4
Ntp5339
Rp5340
(dp5341
g8
g9
(g10
(I0
tp5342
g12
tp5343
Rp5344
(I1
(I1
tp5345
g19
I00
(lp5346
(lp5347
I289
aatp5348
bsg25
S'lil'
p5349
sg27
g30
sg33
(I1
I1100
tp5350
sg35
I50
sg36
g9
(g10
(I0
tp5351
g12
tp5352
Rp5353
(I1
(I1
tp5354
g19
I00
(lp5355
(lp5356
g43
(g30
S'\x01\x00\x00\x00\x00\x00\x00\x00'
p5357
tp5358
Rp5359
aatp5360
bsbsS'postwar'
p5361
g2
(g3
g4
Ntp5362
Rp5363
(dp5364
g8
g9
(g10
(I0
tp5365
g12
tp5366
Rp5367
(I1
(I1
tp5368
g19
I00
(lp5369
(lp5370
I713
aatp5371
bsg25
S'lil'
p5372
sg27
g30
sg33
(I1
I1100
tp5373
sg35
I50
sg36
g9
(g10
(I0
tp5374
g12
tp5375
Rp5376
(I1
(I1
tp5377
g19
I00
(lp5378
(lp5379
g43
(g30
S'\x01\x00\x00\x00\x00\x00\x00\x00'
p5380
tp5381
Rp5382
aatp5383
bsbsS'unite'
p5384
g2
(g3
g4
Ntp5385
Rp5386
(dp5387
g8
g9
(g10
(I0
tp5388
g12
tp5389
Rp5390
(I1
(I1
tp5391
g19
I00
(lp5392
(lp5393
I1014
aatp5394
bsg25
S'lil'
p5395
sg27
g30
sg33
(I1
I1100
tp5396
sg35
I50
sg36
g9
(g10
(I0
tp5397
g12
tp5398
Rp5399
(I1
(I1
tp5400
g19
I00
(lp5401
(lp5402
g43
(g30
S'\x01\x00\x00\x00\x00\x00\x00\x00'
p5403
tp5404
Rp5405
aatp5406
bsbsS'stubborn'
p5407
g2
(g3
g4
Ntp5408
Rp5409
(dp5410
g8
g9
(g10
(I0
tp5411
g12
tp5412
Rp5413
(I1
(I1
tp5414
g19
I00
(lp5415
(lp5416
I908
aatp5417
bsg25
S'lil'
p5418
sg27
g30
sg33
(I1
I1100
tp5419
sg35
I50
sg36
g9
(g10
(I0
tp5420
g12
tp5421
Rp5422
(I1
(I1
tp5423
g19
I00
(lp5424
(lp5425
g43
(g30
S'\x01\x00\x00\x00\x00\x00\x00\x00'
p5426
tp5427
Rp5428
aatp5429
bsbsS'ideal'
p5430
g2
(g3
g4
Ntp5431
Rp5432
(dp5433
g8
g9
(g10
(I0
tp5434
g12
tp5435
Rp5436
(I1
(I1
tp5437
g19
I00
(lp5438
(lp5439
I484
aatp5440
bsg25
S'lil'
p5441
sg27
g30
sg33
(I1
I1100
tp5442
sg35
I50
sg36
g9
(g10
(I0
tp5443
g12
tp5444
Rp5445
(I1
(I1
tp5446
g19
I00
(lp5447
(lp5448
g43
(g30
S'\x01\x00\x00\x00\x00\x00\x00\x00'
p5449
tp5450
Rp5451
aatp5452
bsbsS'suffrage'
p5453
g2
(g3
g4
Ntp5454
Rp5455
(dp5456
g8
g9
(g10
(I0
tp5457
g12
tp5458
Rp5459
(I1
(I1
tp5460
g19
I00
(lp5461
(lp5462
I920
aatp5463
bsg25
S'lil'
p5464
sg27
g30
sg33
(I1
I1100
tp5465
sg35
I50
sg36
g9
(g10
(I0
tp5466
g12
tp5467
Rp5468
(I1
(I1
tp5469
g19
I00
(lp5470
(lp5471
g43
(g30
S'\x01\x00\x00\x00\x00\x00\x00\x00'
p5472
tp5473
Rp5474
aatp5475
bsbsS'slammed'
p5476
g2
(g3
g4
Ntp5477
Rp5478
(dp5479
g8
g9
(g10
(I0
tp5480
g12
tp5481
Rp5482
(I1
(I1
tp5483
g19
I00
(lp5484
(lp5485
I859
aatp5486
bsg25
S'lil'
p5487
sg27
g30
sg33
(I1
I1100
tp5488
sg35
I50
sg36
g9
(g10
(I0
tp5489
g12
tp5490
Rp5491
(I1
(I1
tp5492
g19
I00
(lp5493
(lp5494
g43
(g30
S'\x01\x00\x00\x00\x00\x00\x00\x00'
p5495
tp5496
Rp5497
aatp5498
bsbsS'amusing'
p5499
g2
(g3
g4
Ntp5500
Rp5501
(dp5502
g8
g9
(g10
(I0
tp5503
g12
tp5504
Rp5505
(I1
(I1
tp5506
g19
I00
(lp5507
(lp5508
I54
aatp5509
bsg25
S'lil'
p5510
sg27
g30
sg33
(I1
I1100
tp5511
sg35
I50
sg36
g9
(g10
(I0
tp5512
g12
tp5513
Rp5514
(I1
(I1
tp5515
g19
I00
(lp5516
(lp5517
g43
(g30
S'\x01\x00\x00\x00\x00\x00\x00\x00'
p5518
tp5519
Rp5520
aatp5521
bsbsS'satisfactory'
p5522
g2
(g3
g4
Ntp5523
Rp5524
(dp5525
g8
g9
(g10
(I0
tp5526
g12
tp5527
Rp5528
(I1
(I1
tp5529
g19
I00
(lp5530
(lp5531
I820
aatp5532
bsg25
S'lil'
p5533
sg27
g30
sg33
(I1
I1100
tp5534
sg35
I50
sg36
g9
(g10
(I0
tp5535
g12
tp5536
Rp5537
(I1
(I1
tp5538
g19
I00
(lp5539
(lp5540
g43
(g30
S'\x01\x00\x00\x00\x00\x00\x00\x00'
p5541
tp5542
Rp5543
aatp5544
bsbsS'endorsement'
p5545
g2
(g3
g4
Ntp5546
Rp5547
(dp5548
g8
g9
(g10
(I0
tp5549
g12
tp5550
Rp5551
(I1
(I1
tp5552
g19
I00
(lp5553
(lp5554
I329
aatp5555
bsg25
S'lil'
p5556
sg27
g30
sg33
(I1
I1100
tp5557
sg35
I50
sg36
g9
(g10
(I0
tp5558
g12
tp5559
Rp5560
(I1
(I1
tp5561
g19
I00
(lp5562
(lp5563
g43
(g30
S'\x01\x00\x00\x00\x00\x00\x00\x00'
p5564
tp5565
Rp5566
aatp5567
bsbsS'resembling'
p5568
g2
(g3
g4
Ntp5569
Rp5570
(dp5571
g8
g9
(g10
(I0
tp5572
g12
tp5573
Rp5574
(I1
(I1
tp5575
g19
I00
(lp5576
(lp5577
I793
aatp5578
bsg25
S'lil'
p5579
sg27
g30
sg33
(I1
I1100
tp5580
sg35
I50
sg36
g9
(g10
(I0
tp5581
g12
tp5582
Rp5583
(I1
(I1
tp5584
g19
I00
(lp5585
(lp5586
g43
(g30
S'\x01\x00\x00\x00\x00\x00\x00\x00'
p5587
tp5588
Rp5589
aatp5590
bsbsS'impending'
p5591
g2
(g3
g4
Ntp5592
Rp5593
(dp5594
g8
g9
(g10
(I0
tp5595
g12
tp5596
Rp5597
(I1
(I1
tp5598
g19
I00
(lp5599
(lp5600
I491
aatp5601
bsg25
S'lil'
p5602
sg27
g30
sg33
(I1
I1100
tp5603
sg35
I50
sg36
g9
(g10
(I0
tp5604
g12
tp5605
Rp5606
(I1
(I1
tp5607
g19
I00
(lp5608
(lp5609
g43
(g30
S'\x01\x00\x00\x00\x00\x00\x00\x00'
p5610
tp5611
Rp5612
aatp5613
bsbsS'loathe'
p5614
g2
(g3
g4
Ntp5615
Rp5616
(dp5617
g8
g9
(g10
(I0
tp5618
g12
tp5619
Rp5620
(I1
(I1
tp5621
g19
I00
(lp5622
(lp5623
I568
aatp5624
bsg25
S'lil'
p5625
sg27
g30
sg33
(I1
I1100
tp5626
sg35
I50
sg36
g9
(g10
(I0
tp5627
g12
tp5628
Rp5629
(I1
(I1
tp5630
g19
I00
(lp5631
(lp5632
g43
(g30
S'\x01\x00\x00\x00\x00\x00\x00\x00'
p5633
tp5634
Rp5635
aatp5636
bsbsS'intelligent'
p5637
g2
(g3
g4
Ntp5638
Rp5639
(dp5640
g8
g9
(g10
(I0
tp5641
g12
tp5642
Rp5643
(I1
(I1
tp5644
g19
I00
(lp5645
(lp5646
I527
aatp5647
bsg25
S'lil'
p5648
sg27
g30
sg33
(I1
I1100
tp5649
sg35
I50
sg36
g9
(g10
(I0
tp5650
g12
tp5651
Rp5652
(I1
(I1
tp5653
g19
I00
(lp5654
(lp5655
g43
(g30
S'\x01\x00\x00\x00\x00\x00\x00\x00'
p5656
tp5657
Rp5658
aatp5659
bsbsS'relaxed'
p5660
g2
(g3
g4
Ntp5661
Rp5662
(dp5663
g8
g9
(g10
(I0
tp5664
g12
tp5665
Rp5666
(I1
(I1
tp5667
g19
I00
(lp5668
(lp5669
I782
aatp5670
bsg25
S'lil'
p5671
sg27
g30
sg33
(I1
I1100
tp5672
sg35
I50
sg36
g9
(g10
(I0
tp5673
g12
tp5674
Rp5675
(I1
(I1
tp5676
g19
I00
(lp5677
(lp5678
g43
(g30
S'\x01\x00\x00\x00\x00\x00\x00\x00'
p5679
tp5680
Rp5681
aatp5682
bsbsS'unbeatable'
p5683
g2
(g3
g4
Ntp5684
Rp5685
(dp5686
g8
g9
(g10
(I0
tp5687
g12
tp5688
Rp5689
(I1
(I1
tp5690
g19
I00
(lp5691
(lp5692
I999
aatp5693
bsg25
S'lil'
p5694
sg27
g30
sg33
(I1
I1100
tp5695
sg35
I50
sg36
g9
(g10
(I0
tp5696
g12
tp5697
Rp5698
(I1
(I1
tp5699
g19
I00
(lp5700
(lp5701
g43
(g30
S'\x01\x00\x00\x00\x00\x00\x00\x00'
p5702
tp5703
Rp5704
aatp5705
bsbsS'multiple'
p5706
g2
(g3
g4
Ntp5707
Rp5708
(dp5709
g8
g9
(g10
(I0
tp5710
g12
tp5711
Rp5712
(I1
(I1
tp5713
g19
I00
(lp5714
(lp5715
I617
aatp5716
bsg25
S'lil'
p5717
sg27
g30
sg33
(I1
I1100
tp5718
sg35
I50
sg36
g9
(g10
(I0
tp5719
g12
tp5720
Rp5721
(I1
(I1
tp5722
g19
I00
(lp5723
(lp5724
g43
(g30
S'\x01\x00\x00\x00\x00\x00\x00\x00'
p5725
tp5726
Rp5727
aatp5728
bsbsS'grandiloquence'
p5729
g2
(g3
g4
Ntp5730
Rp5731
(dp5732
g8
g9
(g10
(I0
tp5733
g12
tp5734
Rp5735
(I1
(I1
tp5736
g19
I00
(lp5737
(lp5738
I445
aatp5739
bsg25
S'lil'
p5740
sg27
g30
sg33
(I1
I1100
tp5741
sg35
I50
sg36
g9
(g10
(I0
tp5742
g12
tp5743
Rp5744
(I1
(I1
tp5745
g19
I00
(lp5746
(lp5747
g43
(g30
S'\x01\x00\x00\x00\x00\x00\x00\x00'
p5748
tp5749
Rp5750
aatp5751
bsbsS'persevere'
p5752
g2
(g3
g4
Ntp5753
Rp5754
(dp5755
g8
g9
(g10
(I0
tp5756
g12
tp5757
Rp5758
(I1
(I1
tp5759
g19
I00
(lp5760
(lp5761
I688
aatp5762
bsg25
S'lil'
p5763
sg27
g30
sg33
(I1
I1100
tp5764
sg35
I50
sg36
g9
(g10
(I0
tp5765
g12
tp5766
Rp5767
(I1
(I1
tp5768
g19
I00
(lp5769
(lp5770
g43
(g30
S'\x01\x00\x00\x00\x00\x00\x00\x00'
p5771
tp5772
Rp5773
aatp5774
bsbsS'envious'
p5775
g2
(g3
g4
Ntp5776
Rp5777
(dp5778
g8
g9
(g10
(I0
tp5779
g12
tp5780
Rp5781
(I1
(I1
tp5782
g19
I00
(lp5783
(lp5784
I341
aatp5785
bsg25
S'lil'
p5786
sg27
g30
sg33
(I1
I1100
tp5787
sg35
I50
sg36
g9
(g10
(I0
tp5788
g12
tp5789
Rp5790
(I1
(I1
tp5791
g19
I00
(lp5792
(lp5793
g43
(g30
S'\x01\x00\x00\x00\x00\x00\x00\x00'
p5794
tp5795
Rp5796
aatp5797
bsbsS'demanding'
p5798
g2
(g3
g4
Ntp5799
Rp5800
(dp5801
g8
g9
(g10
(I0
tp5802
g12
tp5803
Rp5804
(I1
(I1
tp5805
g19
I00
(lp5806
(lp5807
I263
aatp5808
bsg25
S'lil'
p5809
sg27
g30
sg33
(I1
I1100
tp5810
sg35
I50
sg36
g9
(g10
(I0
tp5811
g12
tp5812
Rp5813
(I1
(I1
tp5814
g19
I00
(lp5815
(lp5816
g43
(g30
S'\x01\x00\x00\x00\x00\x00\x00\x00'
p5817
tp5818
Rp5819
aatp5820
bsbsS'prepared'
p5821
g2
(g3
g4
Ntp5822
Rp5823
(dp5824
g8
g9
(g10
(I0
tp5825
g12
tp5826
Rp5827
(I1
(I1
tp5828
g19
I00
(lp5829
(lp5830
I720
aatp5831
bsg25
S'lil'
p5832
sg27
g30
sg33
(I1
I1100
tp5833
sg35
I50
sg36
g9
(g10
(I0
tp5834
g12
tp5835
Rp5836
(I1
(I1
tp5837
g19
I00
(lp5838
(lp5839
g43
(g30
S'\x01\x00\x00\x00\x00\x00\x00\x00'
p5840
tp5841
Rp5842
aatp5843
bsbsS'driven'
p5844
g2
(g3
g4
Ntp5845
Rp5846
(dp5847
g8
g9
(g10
(I0
tp5848
g12
tp5849
Rp5850
(I1
(I1
tp5851
g19
I00
(lp5852
(lp5853
I300
aatp5854
bsg25
S'lil'
p5855
sg27
g30
sg33
(I1
I1100
tp5856
sg35
I50
sg36
g9
(g10
(I0
tp5857
g12
tp5858
Rp5859
(I1
(I1
tp5860
g19
I00
(lp5861
(lp5862
g43
(g30
S'\x01\x00\x00\x00\x00\x00\x00\x00'
p5863
tp5864
Rp5865
aatp5866
bsbsS'mediated'
p5867
g2
(g3
g4
Ntp5868
Rp5869
(dp5870
g8
g9
(g10
(I0
tp5871
g12
tp5872
Rp5873
(I1
(I1
tp5874
g19
I00
(lp5875
(lp5876
I594
aatp5877
bsg25
S'lil'
p5878
sg27
g30
sg33
(I1
I1100
tp5879
sg35
I50
sg36
g9
(g10
(I0
tp5880
g12
tp5881
Rp5882
(I1
(I1
tp5883
g19
I00
(lp5884
(lp5885
g43
(g30
S'\x01\x00\x00\x00\x00\x00\x00\x00'
p5886
tp5887
Rp5888
aatp5889
bsbsS'enduring'
p5890
g2
(g3
g4
Ntp5891
Rp5892
(dp5893
g8
g9
(g10
(I0
tp5894
g12
tp5895
Rp5896
(I1
(I1
tp5897
g19
I00
(lp5898
(lp5899
I331
aatp5900
bsg25
S'lil'
p5901
sg27
g30
sg33
(I1
I1100
tp5902
sg35
I50
sg36
g9
(g10
(I0
tp5903
g12
tp5904
Rp5905
(I1
(I1
tp5906
g19
I00
(lp5907
(lp5908
g43
(g30
S'\x01\x00\x00\x00\x00\x00\x00\x00'
p5909
tp5910
Rp5911
aatp5912
bsbsS'insufficient'
p5913
g2
(g3
g4
Ntp5914
Rp5915
(dp5916
g8
g9
(g10
(I0
tp5917
g12
tp5918
Rp5919
(I1
(I1
tp5920
g19
I00
(lp5921
(lp5922
I523
aatp5923
bsg25
S'lil'
p5924
sg27
g30
sg33
(I1
I1100
tp5925
sg35
I50
sg36
g9
(g10
(I0
tp5926
g12
tp5927
Rp5928
(I1
(I1
tp5929
g19
I00
(lp5930
(lp5931
g43
(g30
S'\x01\x00\x00\x00\x00\x00\x00\x00'
p5932
tp5933
Rp5934
aatp5935
bsbsS'transatlantic'
p5936
g2
(g3
g4
Ntp5937
Rp5938
(dp5939
g8
g9
(g10
(I0
tp5940
g12
tp5941
Rp5942
(I1
(I1
tp5943
g19
I00
(lp5944
(lp5945
I976
aatp5946
bsg25
S'lil'
p5947
sg27
g30
sg33
(I1
I1100
tp5948
sg35
I50
sg36
g9
(g10
(I0
tp5949
g12
tp5950
Rp5951
(I1
(I1
tp5952
g19
I00
(lp5953
(lp5954
g43
(g30
S'\x01\x00\x00\x00\x00\x00\x00\x00'
p5955
tp5956
Rp5957
aatp5958
bsbsS'gregarious'
p5959
g2
(g3
g4
Ntp5960
Rp5961
(dp5962
g8
g9
(g10
(I0
tp5963
g12
tp5964
Rp5965
(I1
(I1
tp5966
g19
I00
(lp5967
(lp5968
I450
aatp5969
bsg25
S'lil'
p5970
sg27
g30
sg33
(I1
I1100
tp5971
sg35
I50
sg36
g9
(g10
(I0
tp5972
g12
tp5973
Rp5974
(I1
(I1
tp5975
g19
I00
(lp5976
(lp5977
g43
(g30
S'\x01\x00\x00\x00\x00\x00\x00\x00'
p5978
tp5979
Rp5980
aatp5981
bsbsS'numerous'
p5982
g2
(g3
g4
Ntp5983
Rp5984
(dp5985
g8
g9
(g10
(I0
tp5986
g12
tp5987
Rp5988
(I1
(I1
tp5989
g19
I00
(lp5990
(lp5991
I640
aatp5992
bsg25
S'lil'
p5993
sg27
g30
sg33
(I1
I1100
tp5994
sg35
I50
sg36
g9
(g10
(I0
tp5995
g12
tp5996
Rp5997
(I1
(I1
tp5998
g19
I00
(lp5999
(lp6000
g43
(g30
S'\x01\x00\x00\x00\x00\x00\x00\x00'
p6001
tp6002
Rp6003
aatp6004
bsbsS'egotistical'
p6005
g2
(g3
g4
Ntp6006
Rp6007
(dp6008
g8
g9
(g10
(I0
tp6009
g12
tp6010
Rp6011
(I1
(I1
tp6012
g19
I00
(lp6013
(lp6014
I312
aatp6015
bsg25
S'lil'
p6016
sg27
g30
sg33
(I1
I1100
tp6017
sg35
I50
sg36
g9
(g10
(I0
tp6018
g12
tp6019
Rp6020
(I1
(I1
tp6021
g19
I00
(lp6022
(lp6023
g43
(g30
S'\x01\x00\x00\x00\x00\x00\x00\x00'
p6024
tp6025
Rp6026
aatp6027
bsbsS'disagreeable'
p6028
g2
(g3
g4
Ntp6029
Rp6030
(dp6031
g8
g9
(g10
(I0
tp6032
g12
tp6033
Rp6034
(I1
(I1
tp6035
g19
I00
(lp6036
(lp6037
I275
aatp6038
bsg25
S'lil'
p6039
sg27
g30
sg33
(I1
I1100
tp6040
sg35
I50
sg36
g9
(g10
(I0
tp6041
g12
tp6042
Rp6043
(I1
(I1
tp6044
g19
I00
(lp6045
(lp6046
g43
(g30
S'\x01\x00\x00\x00\x00\x00\x00\x00'
p6047
tp6048
Rp6049
aatp6050
bsbsS'ambiguous'
p6051
g2
(g3
g4
Ntp6052
Rp6053
(dp6054
g8
g9
(g10
(I0
tp6055
g12
tp6056
Rp6057
(I1
(I1
tp6058
g19
I00
(lp6059
(lp6060
I48
aatp6061
bsg25
S'lil'
p6062
sg27
g30
sg33
(I1
I1100
tp6063
sg35
I50
sg36
g9
(g10
(I0
tp6064
g12
tp6065
Rp6066
(I1
(I1
tp6067
g19
I00
(lp6068
(lp6069
g43
(g30
S'\x01\x00\x00\x00\x00\x00\x00\x00'
p6070
tp6071
Rp6072
aatp6073
bsbsS'concordance'
p6074
g2
(g3
g4
Ntp6075
Rp6076
(dp6077
g8
g9
(g10
(I0
tp6078
g12
tp6079
Rp6080
(I1
(I1
tp6081
g19
I00
(lp6082
(lp6083
I207
aatp6084
bsg25
S'lil'
p6085
sg27
g30
sg33
(I1
I1100
tp6086
sg35
I50
sg36
g9
(g10
(I0
tp6087
g12
tp6088
Rp6089
(I1
(I1
tp6090
g19
I00
(lp6091
(lp6092
g43
(g30
S'\x01\x00\x00\x00\x00\x00\x00\x00'
p6093
tp6094
Rp6095
aatp6096
bsbsS'synonym'
p6097
g2
(g3
g4
Ntp6098
Rp6099
(dp6100
g8
g9
(g10
(I0
tp6101
g12
tp6102
Rp6103
(I1
(I1
tp6104
g19
I00
(lp6105
(lp6106
I933
aatp6107
bsg25
S'lil'
p6108
sg27
g30
sg33
(I1
I1100
tp6109
sg35
I50
sg36
g9
(g10
(I0
tp6110
g12
tp6111
Rp6112
(I1
(I1
tp6113
g19
I00
(lp6114
(lp6115
g43
(g30
S'\x01\x00\x00\x00\x00\x00\x00\x00'
p6116
tp6117
Rp6118
aatp6119
bsbsS'stupendous'
p6120
g2
(g3
g4
Ntp6121
Rp6122
(dp6123
g8
g9
(g10
(I0
tp6124
g12
tp6125
Rp6126
(I1
(I1
tp6127
g19
I00
(lp6128
(lp6129
I911
aatp6130
bsg25
S'lil'
p6131
sg27
g30
sg33
(I1
I1100
tp6132
sg35
I50
sg36
g9
(g10
(I0
tp6133
g12
tp6134
Rp6135
(I1
(I1
tp6136
g19
I00
(lp6137
(lp6138
g43
(g30
S'\x01\x00\x00\x00\x00\x00\x00\x00'
p6139
tp6140
Rp6141
aatp6142
bsbsS'elated'
p6143
g2
(g3
g4
Ntp6144
Rp6145
(dp6146
g8
g9
(g10
(I0
tp6147
g12
tp6148
Rp6149
(I1
(I1
tp6150
g19
I00
(lp6151
(lp6152
I314
aatp6153
bsg25
S'lil'
p6154
sg27
g30
sg33
(I1
I1100
tp6155
sg35
I50
sg36
g9
(g10
(I0
tp6156
g12
tp6157
Rp6158
(I1
(I1
tp6159
g19
I00
(lp6160
(lp6161
g43
(g30
S'\x01\x00\x00\x00\x00\x00\x00\x00'
p6162
tp6163
Rp6164
aatp6165
bsbsS'maybe'
p6166
g2
(g3
g4
Ntp6167
Rp6168
(dp6169
g8
g9
(g10
(I0
tp6170
g12
tp6171
Rp6172
(I1
(I1
tp6173
g19
I00
(lp6174
(lp6175
I589
aatp6176
bsg25
S'lil'
p6177
sg27
g30
sg33
(I1
I1100
tp6178
sg35
I50
sg36
g9
(g10
(I0
tp6179
g12
tp6180
Rp6181
(I1
(I1
tp6182
g19
I00
(lp6183
(lp6184
g43
(g30
S'\x01\x00\x00\x00\x00\x00\x00\x00'
p6185
tp6186
Rp6187
aatp6188
bsbsS'meticulous'
p6189
g2
(g3
g4
Ntp6190
Rp6191
(dp6192
g8
g9
(g10
(I0
tp6193
g12
tp6194
Rp6195
(I1
(I1
tp6196
g19
I00
(lp6197
(lp6198
I601
aatp6199
bsg25
S'lil'
p6200
sg27
g30
sg33
(I1
I1100
tp6201
sg35
I50
sg36
g9
(g10
(I0
tp6202
g12
tp6203
Rp6204
(I1
(I1
tp6205
g19
I00
(lp6206
(lp6207
g43
(g30
S'\x01\x00\x00\x00\x00\x00\x00\x00'
p6208
tp6209
Rp6210
aatp6211
bsbsS'enamored'
p6212
g2
(g3
g4
Ntp6213
Rp6214
(dp6215
g8
g9
(g10
(I0
tp6216
g12
tp6217
Rp6218
(I1
(I1
tp6219
g19
I00
(lp6220
(lp6221
I326
aatp6222
bsg25
S'lil'
p6223
sg27
g30
sg33
(I1
I1100
tp6224
sg35
I50
sg36
g9
(g10
(I0
tp6225
g12
tp6226
Rp6227
(I1
(I1
tp6228
g19
I00
(lp6229
(lp6230
g43
(g30
S'\x01\x00\x00\x00\x00\x00\x00\x00'
p6231
tp6232
Rp6233
aatp6234
bsbsS'lacking'
p6235
g2
(g3
g4
Ntp6236
Rp6237
(dp6238
g8
g9
(g10
(I0
tp6239
g12
tp6240
Rp6241
(I1
(I1
tp6242
g19
I00
(lp6243
(lp6244
I548
aatp6245
bsg25
S'lil'
p6246
sg27
g30
sg33
(I1
I1100
tp6247
sg35
I50
sg36
g9
(g10
(I0
tp6248
g12
tp6249
Rp6250
(I1
(I1
tp6251
g19
I00
(lp6252
(lp6253
g43
(g30
S'\x01\x00\x00\x00\x00\x00\x00\x00'
p6254
tp6255
Rp6256
aatp6257
bsbsS'vaguely'
p6258
g2
(g3
g4
Ntp6259
Rp6260
(dp6261
g8
g9
(g10
(I0
tp6262
g12
tp6263
Rp6264
(I1
(I1
tp6265
g19
I00
(lp6266
(lp6267
I1035
aatp6268
bsg25
S'lil'
p6269
sg27
g30
sg33
(I1
I1100
tp6270
sg35
I50
sg36
g9
(g10
(I0
tp6271
g12
tp6272
Rp6273
(I1
(I1
tp6274
g19
I00
(lp6275
(lp6276
g43
(g30
S'\x01\x00\x00\x00\x00\x00\x00\x00'
p6277
tp6278
Rp6279
aatp6280
bsbsS'treaty'
p6281
g2
(g3
g4
Ntp6282
Rp6283
(dp6284
g8
g9
(g10
(I0
tp6285
g12
tp6286
Rp6287
(I1
(I1
tp6288
g19
I00
(lp6289
(lp6290
I981
aatp6291
bsg25
S'lil'
p6292
sg27
g30
sg33
(I1
I1100
tp6293
sg35
I50
sg36
g9
(g10
(I0
tp6294
g12
tp6295
Rp6296
(I1
(I1
tp6297
g19
I00
(lp6298
(lp6299
g43
(g30
S'\x01\x00\x00\x00\x00\x00\x00\x00'
p6300
tp6301
Rp6302
aatp6303
bsbsS'traditional'
p6304
g2
(g3
g4
Ntp6305
Rp6306
(dp6307
g8
g9
(g10
(I0
tp6308
g12
tp6309
Rp6310
(I1
(I1
tp6311
g19
I00
(lp6312
(lp6313
I973
aatp6314
bsg25
S'lil'
p6315
sg27
g30
sg33
(I1
I1100
tp6316
sg35
I50
sg36
g9
(g10
(I0
tp6317
g12
tp6318
Rp6319
(I1
(I1
tp6320
g19
I00
(lp6321
(lp6322
g43
(g30
S'\x01\x00\x00\x00\x00\x00\x00\x00'
p6323
tp6324
Rp6325
aatp6326
bsbsS'inform'
p6327
g2
(g3
g4
Ntp6328
Rp6329
(dp6330
g8
g9
(g10
(I0
tp6331
g12
tp6332
Rp6333
(I1
(I1
tp6334
g19
I00
(lp6335
(lp6336
I519
aatp6337
bsg25
S'lil'
p6338
sg27
g30
sg33
(I1
I1100
tp6339
sg35
I50
sg36
g9
(g10
(I0
tp6340
g12
tp6341
Rp6342
(I1
(I1
tp6343
g19
I00
(lp6344
(lp6345
g43
(g30
S'\x01\x00\x00\x00\x00\x00\x00\x00'
p6346
tp6347
Rp6348
aatp6349
bsbsS'waxing'
p6350
g2
(g3
g4
Ntp6351
Rp6352
(dp6353
g8
g9
(g10
(I0
tp6354
g12
tp6355
Rp6356
(I1
(I1
tp6357
g19
I00
(lp6358
(lp6359
I1063
aatp6360
bsg25
S'lil'
p6361
sg27
g30
sg33
(I1
I1100
tp6362
sg35
I50
sg36
g9
(g10
(I0
tp6363
g12
tp6364
Rp6365
(I1
(I1
tp6366
g19
I00
(lp6367
(lp6368
g43
(g30
S'\x01\x00\x00\x00\x00\x00\x00\x00'
p6369
tp6370
Rp6371
aatp6372
bsbsS'edge'
p6373
g2
(g3
g4
Ntp6374
Rp6375
(dp6376
g8
g9
(g10
(I0
tp6377
g12
tp6378
Rp6379
(I1
(I1
tp6380
g19
I00
(lp6381
(lp6382
I310
aatp6383
bsg25
S'lil'
p6384
sg27
g30
sg33
(I1
I1100
tp6385
sg35
I50
sg36
g9
(g10
(I0
tp6386
g12
tp6387
Rp6388
(I1
(I1
tp6389
g19
I00
(lp6390
(lp6391
g43
(g30
S'\x01\x00\x00\x00\x00\x00\x00\x00'
p6392
tp6393
Rp6394
aatp6395
bsbsS'joining'
p6396
g2
(g3
g4
Ntp6397
Rp6398
(dp6399
g8
g9
(g10
(I0
tp6400
g12
tp6401
Rp6402
(I1
(I1
tp6403
g19
I00
(lp6404
(lp6405
I540
aatp6406
bsg25
S'lil'
p6407
sg27
g30
sg33
(I1
I1100
tp6408
sg35
I50
sg36
g9
(g10
(I0
tp6409
g12
tp6410
Rp6411
(I1
(I1
tp6412
g19
I00
(lp6413
(lp6414
g43
(g30
S'\x01\x00\x00\x00\x00\x00\x00\x00'
p6415
tp6416
Rp6417
aatp6418
bsbsS'intentional'
p6419
g2
(g3
g4
Ntp6420
Rp6421
(dp6422
g8
g9
(g10
(I0
tp6423
g12
tp6424
Rp6425
(I1
(I1
tp6426
g19
I00
(lp6427
(lp6428
I529
aatp6429
bsg25
S'lil'
p6430
sg27
g30
sg33
(I1
I1100
tp6431
sg35
I50
sg36
g9
(g10
(I0
tp6432
g12
tp6433
Rp6434
(I1
(I1
tp6435
g19
I00
(lp6436
(lp6437
g43
(g30
S'\x01\x00\x00\x00\x00\x00\x00\x00'
p6438
tp6439
Rp6440
aatp6441
bsbsS'literate'
p6442
g2
(g3
g4
Ntp6443
Rp6444
(dp6445
g8
g9
(g10
(I0
tp6446
g12
tp6447
Rp6448
(I1
(I1
tp6449
g19
I00
(lp6450
(lp6451
I567
aatp6452
bsg25
S'lil'
p6453
sg27
g30
sg33
(I1
I1100
tp6454
sg35
I50
sg36
g9
(g10
(I0
tp6455
g12
tp6456
Rp6457
(I1
(I1
tp6458
g19
I00
(lp6459
(lp6460
g43
(g30
S'\x01\x00\x00\x00\x00\x00\x00\x00'
p6461
tp6462
Rp6463
aatp6464
bsbsS'quantity'
p6465
g2
(g3
g4
Ntp6466
Rp6467
(dp6468
g8
g9
(g10
(I0
tp6469
g12
tp6470
Rp6471
(I1
(I1
tp6472
g19
I00
(lp6473
(lp6474
I749
aatp6475
bsg25
S'lil'
p6476
sg27
g30
sg33
(I1
I1100
tp6477
sg35
I50
sg36
g9
(g10
(I0
tp6478
g12
tp6479
Rp6480
(I1
(I1
tp6481
g19
I00
(lp6482
(lp6483
g43
(g30
S'\x01\x00\x00\x00\x00\x00\x00\x00'
p6484
tp6485
Rp6486
aatp6487
bsbs.